

Microchip Technology PIC LITE Macro Assembler V1.34 build -361300703 
                                                                                               Tue May 26 22:37:20 2015

Microchip Technology Omniscient Code Generator (Lite mode) build 201502162209
     1                           	processor	16F877A
     2                           	opt	pw 120
     3                           	opt	lm
     4                           	psect	idataBANK0,global,class=CODE,delta=2
     5                           	psect	idataBANK1,global,class=CODE,delta=2
     6                           	psect	strings,global,class=STRING,delta=2
     7                           	psect	cinit,global,class=CODE,merge=1,delta=2
     8                           	psect	bssBANK0,global,class=BANK0,space=1,delta=1
     9                           	psect	dataBANK0,global,class=BANK0,space=1,delta=1
    10                           	psect	dataBANK1,global,class=BANK1,space=1,delta=1
    11                           	psect	inittext,global,class=CODE,delta=2
    12                           	psect	cstackCOMMON,global,class=COMMON,space=1,delta=1
    13                           	psect	cstackBANK0,global,class=BANK0,space=1,delta=1
    14                           	psect	maintext,global,class=CODE,split=1,delta=2
    15                           	psect	text1,local,class=CODE,merge=1,delta=2
    16                           	psect	text2,local,class=CODE,merge=1,delta=2
    17                           	psect	text1_split_1,local,class=CODE,merge=1,delta=2
    18                           	psect	text1_split_2,local,class=CODE,merge=1,delta=2
    19                           	psect	text1_split_3,local,class=CODE,merge=1,delta=2
    20                           	dabs	1,0x7E,2
    21  0000                     	;# 
    22  0001                     	;# 
    23  0002                     	;# 
    24  0003                     	;# 
    25  0004                     	;# 
    26  0005                     	;# 
    27  0006                     	;# 
    28  0007                     	;# 
    29  0008                     	;# 
    30  0009                     	;# 
    31  000A                     	;# 
    32  000B                     	;# 
    33  000C                     	;# 
    34  000D                     	;# 
    35  000E                     	;# 
    36  000E                     	;# 
    37  000F                     	;# 
    38  0010                     	;# 
    39  0011                     	;# 
    40  0012                     	;# 
    41  0013                     	;# 
    42  0014                     	;# 
    43  0015                     	;# 
    44  0015                     	;# 
    45  0016                     	;# 
    46  0017                     	;# 
    47  0018                     	;# 
    48  0019                     	;# 
    49  001A                     	;# 
    50  001B                     	;# 
    51  001B                     	;# 
    52  001C                     	;# 
    53  001D                     	;# 
    54  001E                     	;# 
    55  001F                     	;# 
    56  0081                     	;# 
    57  0085                     	;# 
    58  0086                     	;# 
    59  0087                     	;# 
    60  0088                     	;# 
    61  0089                     	;# 
    62  008C                     	;# 
    63  008D                     	;# 
    64  008E                     	;# 
    65  0091                     	;# 
    66  0092                     	;# 
    67  0093                     	;# 
    68  0094                     	;# 
    69  0098                     	;# 
    70  0099                     	;# 
    71  009C                     	;# 
    72  009D                     	;# 
    73  009E                     	;# 
    74  009F                     	;# 
    75  010C                     	;# 
    76  010D                     	;# 
    77  010E                     	;# 
    78  010F                     	;# 
    79  018C                     	;# 
    80  018D                     	;# 
    81                           
    82                           	psect	idataBANK0
    83  0A31                     __pidataBANK0:	
    84                           
    85                           ;initializer for _SETscale
    86  0A31  340A               	retlw	10
    87  0A32  3400               	retlw	0
    88  0A33  3400               	retlw	0
    89  0A34  3400               	retlw	0
    90  0A35  3414               	retlw	20
    91  0A36  3400               	retlw	0
    92  0A37  3400               	retlw	0
    93  0A38  3400               	retlw	0
    94  0A39  341E               	retlw	30
    95  0A3A  3400               	retlw	0
    96  0A3B  3400               	retlw	0
    97  0A3C  3400               	retlw	0
    98  0A3D  3428               	retlw	40
    99  0A3E  3400               	retlw	0
   100  0A3F  3400               	retlw	0
   101  0A40  3400               	retlw	0
   102  0A41  3432               	retlw	50
   103  0A42  3400               	retlw	0
   104  0A43  3400               	retlw	0
   105  0A44  3400               	retlw	0
   106  0A45  343C               	retlw	60
   107  0A46  3400               	retlw	0
   108  0A47  3400               	retlw	0
   109  0A48  3400               	retlw	0
   110  0A49  3446               	retlw	70
   111  0A4A  3400               	retlw	0
   112  0A4B  3400               	retlw	0
   113  0A4C  3400               	retlw	0
   114  0A4D  3450               	retlw	80
   115  0A4E  3400               	retlw	0
   116  0A4F  3400               	retlw	0
   117  0A50  3400               	retlw	0
   118  0A51  345A               	retlw	90
   119  0A52  3400               	retlw	0
   120  0A53  3400               	retlw	0
   121  0A54  3400               	retlw	0
   122                           
   123                           	psect	idataBANK1
   124  0A55                     __pidataBANK1:	
   125                           
   126                           ;initializer for _numlib
   127  0A55  34FC               	retlw	252
   128  0A56  3400               	retlw	0
   129  0A57  3400               	retlw	0
   130  0A58  3400               	retlw	0
   131  0A59  3460               	retlw	96
   132  0A5A  3400               	retlw	0
   133  0A5B  3400               	retlw	0
   134  0A5C  3400               	retlw	0
   135  0A5D  34DA               	retlw	218
   136  0A5E  3400               	retlw	0
   137  0A5F  3400               	retlw	0
   138  0A60  3400               	retlw	0
   139  0A61  34F2               	retlw	242
   140  0A62  3400               	retlw	0
   141  0A63  3400               	retlw	0
   142  0A64  3400               	retlw	0
   143  0A65  3466               	retlw	102
   144  0A66  3400               	retlw	0
   145  0A67  3400               	retlw	0
   146  0A68  3400               	retlw	0
   147  0A69  34B6               	retlw	182
   148  0A6A  3400               	retlw	0
   149  0A6B  3400               	retlw	0
   150  0A6C  3400               	retlw	0
   151  0A6D  34BE               	retlw	190
   152  0A6E  3400               	retlw	0
   153  0A6F  3400               	retlw	0
   154  0A70  3400               	retlw	0
   155  0A71  34E0               	retlw	224
   156  0A72  3400               	retlw	0
   157  0A73  3400               	retlw	0
   158  0A74  3400               	retlw	0
   159  0A75  34FE               	retlw	254
   160  0A76  3400               	retlw	0
   161  0A77  3400               	retlw	0
   162  0A78  3400               	retlw	0
   163  0A79  34F6               	retlw	246
   164  0A7A  3400               	retlw	0
   165  0A7B  3400               	retlw	0
   166  0A7C  3400               	retlw	0
   167  0A7D  34FD               	retlw	253
   168  0A7E  3400               	retlw	0
   169  0A7F  3400               	retlw	0
   170  0A80  3400               	retlw	0
   171  0A81  3461               	retlw	97
   172  0A82  3400               	retlw	0
   173  0A83  3400               	retlw	0
   174  0A84  3400               	retlw	0
   175  0A85  34DB               	retlw	219
   176  0A86  3400               	retlw	0
   177  0A87  3400               	retlw	0
   178  0A88  3400               	retlw	0
   179  0A89  34F3               	retlw	243
   180  0A8A  3400               	retlw	0
   181  0A8B  3400               	retlw	0
   182  0A8C  3400               	retlw	0
   183  0A8D  3467               	retlw	103
   184  0A8E  3400               	retlw	0
   185  0A8F  3400               	retlw	0
   186  0A90  3400               	retlw	0
   187  0A91  34B7               	retlw	183
   188  0A92  3400               	retlw	0
   189  0A93  3400               	retlw	0
   190  0A94  3400               	retlw	0
   191  0A95  34BF               	retlw	191
   192  0A96  3400               	retlw	0
   193  0A97  3400               	retlw	0
   194  0A98  3400               	retlw	0
   195  0A99  34E1               	retlw	225
   196  0A9A  3400               	retlw	0
   197  0A9B  3400               	retlw	0
   198  0A9C  3400               	retlw	0
   199  0A9D  34FF               	retlw	255
   200  0A9E  3400               	retlw	0
   201  0A9F  3400               	retlw	0
   202  0AA0  3400               	retlw	0
   203  0AA1  34F7               	retlw	247
   204  0AA2  3400               	retlw	0
   205  0AA3  3400               	retlw	0
   206  0AA4  3400               	retlw	0
   207  0005                     _PORTA	set	5
   208  0006                     _PORTB	set	6
   209  0007                     _PORTC	set	7
   210  0008                     _PORTD	set	8
   211  0009                     _PORTE	set	9
   212  0085                     _TRISA	set	133
   213  0086                     _TRISB	set	134
   214  0087                     _TRISC	set	135
   215  0088                     _TRISD	set	136
   216                           
   217                           	psect	strings
   218  0800                     __pstrings:	
   219  0800                     stringtab:	
   220  0800                     __stringtab:	
   221  0800                     stringcode:	
   222                           ;	String table - string pointers are 1 byte each
   223                           
   224  0800                     stringdir:	
   225  0800  3008               	movlw	high stringdir
   226  0801  008A               	movwf	10
   227  0802  0804               	movf	4,w
   228  0803  0A84               	incf	4,f
   229  0804  0782               	addwf	2,f
   230  0805                     __stringbase:	
   231  0805  3400               	retlw	0
   232  0806                     __end_of__stringtab:	
   233  0806                     STR_1:	
   234  0806  3441               	retlw	65	;'A'
   235  0807  3400               	retlw	0
   236  0808                     STR_2:	
   237  0808  3442               	retlw	66	;'B'
   238  0809  3400               	retlw	0
   239  080A                     STR_3:	
   240  080A  3443               	retlw	67	;'C'
   241  080B  3400               	retlw	0
   242  080C                     STR_4:	
   243  080C  3444               	retlw	68	;'D'
   244  080D  3400               	retlw	0
   245  080E                     STR_5:	
   246  080E  3445               	retlw	69	;'E'
   247  080F  3400               	retlw	0
   248  0806                     
   249                           ; #config settings
   250  0000                     
   251                           	psect	cinit
   252  07DF                     start_initialization:	
   253  07DF                     __initialization:	
   254                           
   255                           ; Clear objects allocated to BANK0
   256  07DF  01D7               	clrf	__pbssBANK0& (0+127)
   257  07E0  01D8               	clrf	(__pbssBANK0+1)& (0+127)
   258  07E1  01D9               	clrf	(__pbssBANK0+2)& (0+127)
   259  07E2  01DA               	clrf	(__pbssBANK0+3)& (0+127)
   260                           
   261                           ; Initialize objects allocated to BANK1
   262  07E3  1383               	bcf	3,7	;select IRP bank0
   263  07E4  30F0               	movlw	low (__pdataBANK1+80)
   264  07E5  00FD               	movwf	btemp+-1
   265  07E6  300A               	movlw	high __pidataBANK1
   266  07E7  00FE               	movwf	btemp
   267  07E8  3055               	movlw	low __pidataBANK1
   268  07E9  00FF               	movwf	btemp+1
   269  07EA  30A0               	movlw	low __pdataBANK1
   270  07EB  0084               	movwf	4
   271  07EC  120A  158A  2224  120A  118A  	fcall	init_ram0
   272                           
   273                           ; Initialize objects allocated to BANK0
   274  07F1  3044               	movlw	low (__pdataBANK0+36)
   275  07F2  00FD               	movwf	btemp+-1
   276  07F3  300A               	movlw	high __pidataBANK0
   277  07F4  00FE               	movwf	btemp
   278  07F5  3031               	movlw	low __pidataBANK0
   279  07F6  00FF               	movwf	btemp+1
   280  07F7  3020               	movlw	low __pdataBANK0
   281  07F8  0084               	movwf	4
   282  07F9  120A  158A  2224   	fcall	init_ram0
   283  07FC                     end_of_initialization:	
   284                           ;End of C runtime variable initialization code
   285                           
   286  07FC                     __end_of__initialization:	
   287  07FC  0183               	clrf	3
   288  07FD  120A  158A  2AA5   	ljmp	_main	;jump to C main() function
   289                           
   290                           	psect	bssBANK0
   291  0057                     __pbssBANK0:	
   292  0057                     _SETport:	
   293  0057                     	ds	2
   294  0059                     _fdef:	
   295  0059                     	ds	2
   296                           
   297                           	psect	dataBANK0
   298  0020                     __pdataBANK0:	
   299  0020                     _SETscale:	
   300  0020                     	ds	36
   301                           
   302                           	psect	dataBANK1
   303  00A0                     __pdataBANK1:	
   304  00A0                     _numlib:	
   305  00A0                     	ds	80
   306                           
   307                           	psect	inittext
   308  0A20                     init_fetch0:	
   309                           ;	Called with low address in FSR and high address in W
   310                           
   311  0A20  087E               	movf	126,w
   312  0A21  008A               	movwf	10
   313  0A22  087F               	movf	127,w
   314  0A23  0082               	movwf	2
   315  0A24                     init_ram0:	
   316                           ;Called with:
   317                           ;	high address of idata address in btemp 
   318                           ;	low address of idata address in btemp+1 
   319                           ;	low address of data in FSR
   320                           ;	high address + 1 of data in btemp-1
   321                           
   322  0A24  2220  120A  158A   	fcall	init_fetch0
   323  0A27  0080               	movwf	0
   324  0A28  0A84               	incf	4,f
   325  0A29  0804               	movf	4,w
   326  0A2A  067D               	xorwf	125,w
   327  0A2B  1903               	btfsc	3,2
   328  0A2C  3400               	retlw	0
   329  0A2D  0AFF               	incf	127,f
   330  0A2E  1903               	btfsc	3,2
   331  0A2F  0AFE               	incf	126,f
   332  0A30  2A24               	goto	init_ram0
   333                           
   334                           	psect	cstackCOMMON
   335  0070                     __pcstackCOMMON:	
   336  0070                     ?_main:	
   337  0070                     ?___ftge:	
   338                           ; 0 bytes @ 0x0
   339                           
   340  0070                     ___ftge@ff1:	
   341                           ; 1 bit 
   342                           
   343                           
   344                           ; 3 bytes @ 0x0
   345  0070                     	ds	3
   346  0073                     ___ftge@ff2:	
   347                           
   348                           ; 3 bytes @ 0x3
   349  0073                     	ds	3
   350  0076                     ??___ftge:	
   351                           
   352                           ; 0 bytes @ 0x6
   353  0076                     	ds	6
   354  007C                     ??_main:	
   355                           
   356                           ; 0 bytes @ 0xC
   357  007C                     	ds	2
   358                           
   359                           	psect	cstackBANK0
   360  0044                     __pcstackBANK0:	
   361  0044                     ?_print_sevenseg:	
   362  0044                     print_sevenseg@number:	
   363                           ; 0 bytes @ 0x0
   364                           
   365                           
   366                           ; 2 bytes @ 0x0
   367  0044                     	ds	2
   368  0046                     print_sevenseg@compnumb:	
   369                           
   370                           ; 3 bytes @ 0x2
   371  0046                     	ds	3
   372  0049                     print_sevenseg@port1:	
   373                           
   374                           ; 1 bytes @ 0x5
   375  0049                     	ds	1
   376  004A                     print_sevenseg@port2:	
   377                           
   378                           ; 1 bytes @ 0x6
   379  004A                     	ds	1
   380  004B                     ??_print_sevenseg:	
   381                           
   382                           ; 0 bytes @ 0x7
   383  004B                     	ds	8
   384  0053                     main@c:	
   385                           
   386                           ; 2 bytes @ 0xF
   387  0053                     	ds	2
   388  0055                     main@i:	
   389                           
   390                           ; 2 bytes @ 0x11
   391  0055                     	ds	2
   392                           
   393                           	psect	maintext
   394  0AA5                     __pmaintext:	
   395 ;;
   396 ;;Main: autosize = 0, tempsize = 2, incstack = 0, save=0
   397 ;;
   398 ;; *************** function _main *****************
   399 ;; Defined at:
   400 ;;		line 25 in file "sample.c"
   401 ;; Parameters:    Size  Location     Type
   402 ;;		None
   403 ;; Auto vars:     Size  Location     Type
   404 ;;  i               2   17[BANK0 ] int 
   405 ;;  c               2   15[BANK0 ] int 
   406 ;; Return value:  Size  Location     Type
   407 ;;		None               void
   408 ;; Registers used:
   409 ;;		wreg, fsr0l, fsr0h, status,2, status,0, btemp+1, pclath, cstack
   410 ;; Tracked objects:
   411 ;;		On entry : B00/0
   412 ;;		On exit  : 0/0
   413 ;;		Unchanged: 0/0
   414 ;; Data sizes:     COMMON   BANK0   BANK1   BANK3   BANK2
   415 ;;      Params:         0       0       0       0       0
   416 ;;      Locals:         0       4       0       0       0
   417 ;;      Temps:          2       0       0       0       0
   418 ;;      Totals:         2       4       0       0       0
   419 ;;Total ram usage:        6 bytes
   420 ;; Hardware stack levels required when called:    2
   421 ;; This function calls:
   422 ;;		_print_sevenseg
   423 ;; This function is called by:
   424 ;;		Startup code after reset
   425 ;; This function uses a non-reentrant model
   426 ;;
   427                           
   428                           
   429                           ;psect for function _main
   430  0AA5                     _main:	
   431                           
   432                           ;sample.c: 27: TRISA = 0, TRISB = 0, TRISC = 0, TRISD = 0;
   433                           
   434                           ;incstack = 0
   435                           ; Regs used in _main: [wreg-fsr0h+status,2+status,0+btemp+1+pclath+cstack]
   436  0AA5  1683               	bsf	3,5	;RP0=1, select bank1
   437  0AA6  1303               	bcf	3,6	;RP1=0, select bank1
   438  0AA7  0185               	clrf	5	;volatile
   439  0AA8  0186               	clrf	6	;volatile
   440  0AA9  0187               	clrf	7	;volatile
   441  0AAA  0188               	clrf	8	;volatile
   442                           
   443                           ;sample.c: 28: PORTA = 0, PORTB = 0, PORTC = 0, PORTD = 0;
   444  0AAB  1283               	bcf	3,5	;RP0=0, select bank0
   445  0AAC  1303               	bcf	3,6	;RP1=0, select bank0
   446  0AAD  0185               	clrf	5	;volatile
   447  0AAE  0186               	clrf	6	;volatile
   448  0AAF  0187               	clrf	7	;volatile
   449  0AB0  0188               	clrf	8	;volatile
   450                           
   451                           ;sample.c: 30: int c = 0;
   452  0AB1  01D3               	clrf	main@c
   453  0AB2  01D4               	clrf	main@c+1
   454  0AB3                     l1987:	
   455                           ;sample.c: 31: while(9 > c)
   456                           
   457  0AB3  1283               	bcf	3,5	;RP0=0, select bank0
   458  0AB4  1303               	bcf	3,6	;RP1=0, select bank0
   459  0AB5  0854               	movf	main@c+1,w
   460  0AB6  3A80               	xorlw	128
   461  0AB7  00FF               	movwf	127
   462  0AB8  3080               	movlw	128
   463  0AB9  027F               	subwf	127,w
   464  0ABA  1D03               	skipz
   465  0ABB  2ABE               	goto	u4185
   466  0ABC  3009               	movlw	9
   467  0ABD  0253               	subwf	main@c,w
   468  0ABE                     u4185:	
   469  0ABE  1803               	btfsc	3,0
   470  0ABF  2B15               	goto	l194
   471                           
   472                           ;sample.c: 32: {
   473                           ;sample.c: 33: print_sevenseg(c++, (0), (0), "B");
   474  0AC0  1283               	bcf	3,5	;RP0=0, select bank0
   475  0AC1  1303               	bcf	3,6	;RP1=0, select bank0
   476  0AC2  0854               	movf	main@c+1,w
   477  0AC3  00C5               	movwf	print_sevenseg@number+1
   478  0AC4  0853               	movf	main@c,w
   479  0AC5  00C4               	movwf	print_sevenseg@number
   480  0AC6  3000               	movlw	0
   481  0AC7  00C6               	movwf	print_sevenseg@compnumb
   482  0AC8  3000               	movlw	0
   483  0AC9  00C7               	movwf	print_sevenseg@compnumb+1
   484  0ACA  3000               	movlw	0
   485  0ACB  00C8               	movwf	print_sevenseg@compnumb+2
   486  0ACC  01C9               	clrf	print_sevenseg@port1
   487  0ACD  3003               	movlw	(low ((STR_2-__stringbase)| (0+32768)))& (0+255)
   488  0ACE  00FC               	movwf	??_main
   489  0ACF  087C               	movf	??_main,w
   490  0AD0  00CA               	movwf	print_sevenseg@port2
   491  0AD1  120A  158A  2316  120A  158A  	fcall	_print_sevenseg
   492  0AD6  3001               	movlw	1
   493  0AD7  1283               	bcf	3,5	;RP0=0, select bank0
   494  0AD8  1303               	bcf	3,6	;RP1=0, select bank0
   495  0AD9  07D3               	addwf	main@c,f
   496  0ADA  1803               	skipnc
   497  0ADB  0AD4               	incf	main@c+1,f
   498  0ADC  3000               	movlw	0
   499  0ADD  07D4               	addwf	main@c+1,f
   500                           
   501                           ;sample.c: 34: for(int i = 0; i <= 99; i++)
   502  0ADE  01D5               	clrf	main@i
   503  0ADF  01D6               	clrf	main@i+1
   504  0AE0                     L1:	
   505  0AE0  0856               	movf	main@i+1,w
   506  0AE1  3A80               	xorlw	128
   507  0AE2  00FF               	movwf	127
   508  0AE3  3080               	movlw	128
   509  0AE4  027F               	subwf	127,w
   510  0AE5  1D03               	skipz
   511  0AE6  2AE9               	goto	u4165
   512  0AE7  3064               	movlw	100
   513  0AE8  0255               	subwf	main@i,w
   514  0AE9                     u4165:	
   515  0AE9  1803               	btfsc	3,0
   516  0AEA  2AB3               	goto	l1987
   517                           
   518                           ;sample.c: 35: {
   519                           ;sample.c: 36: print_sevenseg(i, (0), "C", "D");
   520  0AEB  1283               	bcf	3,5	;RP0=0, select bank0
   521  0AEC  1303               	bcf	3,6	;RP1=0, select bank0
   522  0AED  0856               	movf	main@i+1,w
   523  0AEE  00C5               	movwf	print_sevenseg@number+1
   524  0AEF  0855               	movf	main@i,w
   525  0AF0  00C4               	movwf	print_sevenseg@number
   526  0AF1  3000               	movlw	0
   527  0AF2  00C6               	movwf	print_sevenseg@compnumb
   528  0AF3  3000               	movlw	0
   529  0AF4  00C7               	movwf	print_sevenseg@compnumb+1
   530  0AF5  3000               	movlw	0
   531  0AF6  00C8               	movwf	print_sevenseg@compnumb+2
   532  0AF7  3005               	movlw	(low ((STR_3-__stringbase)| (0+32768)))& (0+255)
   533  0AF8  00FC               	movwf	??_main
   534  0AF9  087C               	movf	??_main,w
   535  0AFA  00C9               	movwf	print_sevenseg@port1
   536  0AFB  3007               	movlw	(low ((STR_4-__stringbase)| (0+32768)))& (0+255)
   537  0AFC  00FD               	movwf	??_main+1
   538  0AFD  087D               	movf	??_main+1,w
   539  0AFE  00CA               	movwf	print_sevenseg@port2
   540  0AFF  120A  158A  2316  120A  158A  	fcall	_print_sevenseg
   541                           
   542                           ;sample.c: 37: _delay((unsigned long)((60)*(8000000/4000.0)));
   543  0B04  309C               	movlw	156
   544  0B05  00FD               	movwf	??_main+1
   545  0B06  30D7               	movlw	215
   546  0B07  00FC               	movwf	??_main
   547  0B08                     u4197:	
   548  0B08  0BFC               	decfsz	??_main,f
   549  0B09  2B08               	goto	u4197
   550  0B0A  0BFD               	decfsz	??_main+1,f
   551  0B0B  2B08               	goto	u4197
   552  0B0C  3001               	movlw	1
   553  0B0D  1283               	bcf	3,5	;RP0=0, select bank0
   554  0B0E  1303               	bcf	3,6	;RP1=0, select bank0
   555  0B0F  07D5               	addwf	main@i,f
   556  0B10  1803               	skipnc
   557  0B11  0AD6               	incf	main@i+1,f
   558  0B12  3000               	movlw	0
   559  0B13  07D6               	addwf	main@i+1,f
   560  0B14  2AE0               	goto	L1
   561  0B15                     l194:	
   562                           ;sample.c: 38: }
   563                           ;sample.c: 40: }
   564                           ;sample.c: 44: while(1);
   565                           
   566  0B15  2B15               	goto	l194
   567  0B16                     __end_of_main:	
   568                           
   569                           	psect	text1
   570  0B16                     __ptext1:	
   571 ;; *************** function _print_sevenseg *****************
   572 ;; Defined at:
   573 ;;		line 11 in file "7seglibmain.h"
   574 ;; Parameters:    Size  Location     Type
   575 ;;  number          2    0[BANK0 ] int 
   576 ;;  compnumb        3    2[BANK0 ] float 
   577 ;;  port1           1    5[BANK0 ] PTR unsigned char 
   578 ;;		 -> STR_32(2), NULL(0), 
   579 ;;  port2           1    6[BANK0 ] PTR unsigned char 
   580 ;;		 -> STR_33(2), STR_31(2), 
   581 ;; Auto vars:     Size  Location     Type
   582 ;;		None
   583 ;; Return value:  Size  Location     Type
   584 ;;		None               void
   585 ;; Registers used:
   586 ;;		wreg, fsr0l, fsr0h, status,2, status,0, btemp+1, pclath, cstack
   587 ;; Tracked objects:
   588 ;;		On entry : 0/0
   589 ;;		On exit  : 0/0
   590 ;;		Unchanged: 0/0
   591 ;; Data sizes:     COMMON   BANK0   BANK1   BANK3   BANK2
   592 ;;      Params:         0       7       0       0       0
   593 ;;      Locals:         0       0       0       0       0
   594 ;;      Temps:          0       8       0       0       0
   595 ;;      Totals:         0      15       0       0       0
   596 ;;Total ram usage:       15 bytes
   597 ;; Hardware stack levels used:    1
   598 ;; Hardware stack levels required when called:    1
   599 ;; This function calls:
   600 ;;		___ftge
   601 ;; This function is called by:
   602 ;;		_main
   603 ;; This function uses a non-reentrant model
   604 ;;
   605                           
   606                           
   607                           ;psect for function _print_sevenseg
   608  0B16                     _print_sevenseg:	
   609                           
   610                           ;7seglibmain.h: 13: if(number <= 9 && port2 != (0))
   611                           
   612                           ;incstack = 0
   613                           ; Regs used in _print_sevenseg: [wreg-fsr0h+status,2+status,0+btemp+1+pclath+cstack]
   614  0B16  1283               	bcf	3,5	;RP0=0, select bank0
   615  0B17  1303               	bcf	3,6	;RP1=0, select bank0
   616  0B18  0845               	movf	print_sevenseg@number+1,w
   617  0B19  3A80               	xorlw	128
   618  0B1A  00FF               	movwf	127
   619  0B1B  3080               	movlw	128
   620  0B1C  027F               	subwf	127,w
   621  0B1D  1D03               	skipz
   622  0B1E  2B21               	goto	u2155
   623  0B1F  300A               	movlw	10
   624  0B20  0244               	subwf	print_sevenseg@number,w
   625  0B21                     u2155:	
   626  0B21  1803               	skipnc
   627  0B22  2B9D               	goto	L3
   628  0B23  1283               	bcf	3,5	;RP0=0, select bank0
   629  0B24  1303               	bcf	3,6	;RP1=0, select bank0
   630  0B25  084A               	movf	print_sevenseg@port2,w
   631  0B26  1903               	btfsc	3,2
   632  0B27  2B9D               	goto	L4
   633                           
   634                           ;7seglibmain.h: 14: {
   635                           ;7seglibmain.h: 15: if(port1 == "A")
   636  0B28  0849               	movf	print_sevenseg@port1,w
   637  0B29  3A01               	xorlw	(low ((STR_1-__stringbase)| (0+32768)))& (0+255)
   638  0B2A  1D03               	skipz
   639  0B2B  2B2D               	goto	l1359
   640                           
   641                           ;7seglibmain.h: 16: PORTA = 0;
   642  0B2C  0185               	clrf	5	;volatile
   643  0B2D                     l1359:	
   644                           
   645                           ;7seglibmain.h: 18: if(port1 == "B")
   646  0B2D  0849               	movf	print_sevenseg@port1,w
   647  0B2E  3A03               	xorlw	(low ((STR_2-__stringbase)| (0+32768)))& (0+255)
   648  0B2F  1903               	btfsc	3,2
   649                           
   650                           ;7seglibmain.h: 19: PORTB = 0;
   651  0B30  0186               	clrf	6	;volatile
   652                           
   653                           ;7seglibmain.h: 21: if(port1 == "C")
   654  0B31  0849               	movf	print_sevenseg@port1,w
   655  0B32  3A05               	xorlw	(low ((STR_3-__stringbase)| (0+32768)))& (0+255)
   656  0B33  1903               	btfsc	3,2
   657                           
   658                           ;7seglibmain.h: 22: PORTC = 0;
   659  0B34  0187               	clrf	7	;volatile
   660                           
   661                           ;7seglibmain.h: 24: if(port1 == "D")
   662  0B35  0849               	movf	print_sevenseg@port1,w
   663  0B36  3A07               	xorlw	(low ((STR_4-__stringbase)| (0+32768)))& (0+255)
   664  0B37  1903               	btfsc	3,2
   665                           
   666                           ;7seglibmain.h: 25: PORTD = 0;
   667  0B38  0188               	clrf	8	;volatile
   668                           
   669                           ;7seglibmain.h: 27: if(port1 == "E")
   670  0B39  0849               	movf	print_sevenseg@port1,w
   671  0B3A  3A09               	xorlw	(low ((STR_5-__stringbase)| (0+32768)))& (0+255)
   672  0B3B  1903               	btfsc	3,2
   673                           
   674                           ;7seglibmain.h: 28: PORTE = 0;
   675  0B3C  0189               	clrf	9	;volatile
   676                           
   677                           ;7seglibmain.h: 30: if(port2 == "A")
   678  0B3D  084A               	movf	print_sevenseg@port2,w
   679  0B3E  3A01               	xorlw	(low ((STR_1-__stringbase)| (0+32768)))& (0+255)
   680  0B3F  1D03               	skipz
   681  0B40  2B50               	goto	l1379
   682                           
   683                           ;7seglibmain.h: 31: PORTA = numlib[number];
   684  0B41  0844               	movf	print_sevenseg@number,w
   685  0B42  00CB               	movwf	??_print_sevenseg
   686  0B43  3001               	movlw	1
   687  0B44                     u2235:	
   688  0B44  1003               	clrc
   689  0B45  0DCB               	rlf	??_print_sevenseg,f
   690  0B46  3EFF               	addlw	-1
   691  0B47  1D03               	skipz
   692  0B48  2B44               	goto	u2235
   693  0B49  1003               	clrc
   694  0B4A  0D4B               	rlf	??_print_sevenseg,w
   695  0B4B  3EA0               	addlw	(low (_numlib| 0))& (0+255)
   696  0B4C  0084               	movwf	4
   697  0B4D  1383               	bcf	3,7	;select IRP bank1
   698  0B4E  0800               	movf	0,w
   699  0B4F  0085               	movwf	5	;volatile
   700  0B50                     l1379:	
   701                           
   702                           ;7seglibmain.h: 33: if(port2 == "B")
   703  0B50  084A               	movf	print_sevenseg@port2,w
   704  0B51  3A03               	xorlw	(low ((STR_2-__stringbase)| (0+32768)))& (0+255)
   705  0B52  1D03               	skipz
   706  0B53  2B63               	goto	l1383
   707                           
   708                           ;7seglibmain.h: 34: PORTB = numlib[number];
   709  0B54  0844               	movf	print_sevenseg@number,w
   710  0B55  00CB               	movwf	??_print_sevenseg
   711  0B56  3001               	movlw	1
   712  0B57                     u2255:	
   713  0B57  1003               	clrc
   714  0B58  0DCB               	rlf	??_print_sevenseg,f
   715  0B59  3EFF               	addlw	-1
   716  0B5A  1D03               	skipz
   717  0B5B  2B57               	goto	u2255
   718  0B5C  1003               	clrc
   719  0B5D  0D4B               	rlf	??_print_sevenseg,w
   720  0B5E  3EA0               	addlw	(low (_numlib| 0))& (0+255)
   721  0B5F  0084               	movwf	4
   722  0B60  1383               	bcf	3,7	;select IRP bank1
   723  0B61  0800               	movf	0,w
   724  0B62  0086               	movwf	6	;volatile
   725  0B63                     l1383:	
   726                           
   727                           ;7seglibmain.h: 36: if(port2 == "C")
   728  0B63  084A               	movf	print_sevenseg@port2,w
   729  0B64  3A05               	xorlw	(low ((STR_3-__stringbase)| (0+32768)))& (0+255)
   730  0B65  1D03               	skipz
   731  0B66  2B76               	goto	l1387
   732                           
   733                           ;7seglibmain.h: 37: PORTC = numlib[number];
   734  0B67  0844               	movf	print_sevenseg@number,w
   735  0B68  00CB               	movwf	??_print_sevenseg
   736  0B69  3001               	movlw	1
   737  0B6A                     u2275:	
   738  0B6A  1003               	clrc
   739  0B6B  0DCB               	rlf	??_print_sevenseg,f
   740  0B6C  3EFF               	addlw	-1
   741  0B6D  1D03               	skipz
   742  0B6E  2B6A               	goto	u2275
   743  0B6F  1003               	clrc
   744  0B70  0D4B               	rlf	??_print_sevenseg,w
   745  0B71  3EA0               	addlw	(low (_numlib| 0))& (0+255)
   746  0B72  0084               	movwf	4
   747  0B73  1383               	bcf	3,7	;select IRP bank1
   748  0B74  0800               	movf	0,w
   749  0B75  0087               	movwf	7	;volatile
   750  0B76                     l1387:	
   751                           
   752                           ;7seglibmain.h: 39: if(port2 == "D")
   753  0B76  084A               	movf	print_sevenseg@port2,w
   754  0B77  3A07               	xorlw	(low ((STR_4-__stringbase)| (0+32768)))& (0+255)
   755  0B78  1D03               	skipz
   756  0B79  2B89               	goto	l1391
   757                           
   758                           ;7seglibmain.h: 40: PORTD = numlib[number];
   759  0B7A  0844               	movf	print_sevenseg@number,w
   760  0B7B  00CB               	movwf	??_print_sevenseg
   761  0B7C  3001               	movlw	1
   762  0B7D                     u2295:	
   763  0B7D  1003               	clrc
   764  0B7E  0DCB               	rlf	??_print_sevenseg,f
   765  0B7F  3EFF               	addlw	-1
   766  0B80  1D03               	skipz
   767  0B81  2B7D               	goto	u2295
   768  0B82  1003               	clrc
   769  0B83  0D4B               	rlf	??_print_sevenseg,w
   770  0B84  3EA0               	addlw	(low (_numlib| 0))& (0+255)
   771  0B85  0084               	movwf	4
   772  0B86  1383               	bcf	3,7	;select IRP bank1
   773  0B87  0800               	movf	0,w
   774  0B88  0088               	movwf	8	;volatile
   775  0B89                     l1391:	
   776                           
   777                           ;7seglibmain.h: 42: if(port2 == "E")
   778  0B89  084A               	movf	print_sevenseg@port2,w
   779  0B8A  3A09               	xorlw	(low ((STR_5-__stringbase)| (0+32768)))& (0+255)
   780  0B8B  1D03               	skipz
   781  0B8C  0008               	return
   782                           
   783                           ;7seglibmain.h: 43: PORTE = numlib[number];
   784  0B8D  0844               	movf	print_sevenseg@number,w
   785  0B8E  00CB               	movwf	??_print_sevenseg
   786  0B8F  3001               	movlw	1
   787  0B90                     u2315:	
   788  0B90  1003               	clrc
   789  0B91  0DCB               	rlf	??_print_sevenseg,f
   790  0B92  3EFF               	addlw	-1
   791  0B93  1D03               	skipz
   792  0B94  2B90               	goto	u2315
   793  0B95  1003               	clrc
   794  0B96  0D4B               	rlf	??_print_sevenseg,w
   795  0B97  3EA0               	addlw	(low (_numlib| 0))& (0+255)
   796  0B98  0084               	movwf	4
   797  0B99  1383               	bcf	3,7	;select IRP bank1
   798  0B9A  0800               	movf	0,w
   799  0B9B  0089               	movwf	9	;volatile
   800                           
   801                           ;7seglibmain.h: 44: }
   802  0B9C  0008               	return
   803  0B9D                     L4:	
   804  0B9D                     L3:	
   805  0B9D  120A  158A  2C7D   	ljmp	l1395
   806                           
   807                           	psect	text2
   808  000B                     __ptext2:	
   809 ;; *************** function ___ftge *****************
   810 ;; Defined at:
   811 ;;		line 4 in file "C:\Arquivos de programas\Microchip\xc8\v1.34\sources\common\ftge.c"
   812 ;; Parameters:    Size  Location     Type
   813 ;;  ff1             3    0[COMMON] float 
   814 ;;  ff2             3    3[COMMON] float 
   815 ;; Auto vars:     Size  Location     Type
   816 ;;		None
   817 ;; Return value:  Size  Location     Type
   818 ;;		None               void
   819 ;; Registers used:
   820 ;;		wreg, status,2, status,0
   821 ;; Tracked objects:
   822 ;;		On entry : 0/0
   823 ;;		On exit  : 0/0
   824 ;;		Unchanged: 0/0
   825 ;; Data sizes:     COMMON   BANK0   BANK1   BANK3   BANK2
   826 ;;      Params:         6       0       0       0       0
   827 ;;      Locals:         0       0       0       0       0
   828 ;;      Temps:          6       0       0       0       0
   829 ;;      Totals:        12       0       0       0       0
   830 ;;Total ram usage:       12 bytes
   831 ;; Hardware stack levels used:    1
   832 ;; This function calls:
   833 ;;		Nothing
   834 ;; This function is called by:
   835 ;;		_print_sevenseg
   836 ;; This function uses a non-reentrant model
   837 ;;
   838                           
   839                           
   840                           ;psect for function ___ftge
   841  000B                     ___ftge:	
   842                           
   843                           ;incstack = 0
   844                           ; Regs used in ___ftge: [wreg+status,2+status,0]
   845  000B  1FF2               	btfss	___ftge@ff1+2,7
   846  000C  2832               	goto	l1335
   847  000D  3000               	movlw	0
   848  000E  00F6               	movwf	??___ftge
   849  000F  3000               	movlw	0
   850  0010  00F7               	movwf	??___ftge+1
   851  0011  3080               	movlw	128
   852  0012  00F8               	movwf	??___ftge+2
   853  0013  0970               	comf	___ftge@ff1,w
   854  0014  00F9               	movwf	??___ftge+3
   855  0015  0971               	comf	___ftge@ff1+1,w
   856  0016  00FA               	movwf	??___ftge+4
   857  0017  0972               	comf	___ftge@ff1+2,w
   858  0018  00FB               	movwf	??___ftge+5
   859  0019  0AF9               	incf	??___ftge+3,f
   860  001A  1903               	skipnz
   861  001B  0AFA               	incf	??___ftge+4,f
   862  001C  1903               	skipnz
   863  001D  0AFB               	incf	??___ftge+5,f
   864  001E  0879               	movf	??___ftge+3,w
   865  001F  07F6               	addwf	??___ftge,f
   866  0020  087A               	movf	??___ftge+4,w
   867  0021  1803               	skipnc
   868  0022  0F7A               	incfsz	??___ftge+4,w
   869  0023  2825               	goto	u2111
   870  0024  2826               	goto	u2112
   871  0025                     u2111:	
   872  0025  07F7               	addwf	??___ftge+1,f
   873  0026                     u2112:	
   874  0026  087B               	movf	??___ftge+5,w
   875  0027  1803               	skipnc
   876  0028  0F7B               	incfsz	??___ftge+5,w
   877  0029  282B               	goto	u2113
   878  002A  282C               	goto	u2114
   879  002B                     u2113:	
   880  002B  07F8               	addwf	??___ftge+2,f
   881  002C                     u2114:	
   882  002C  0876               	movf	??___ftge,w
   883  002D  00F0               	movwf	___ftge@ff1
   884  002E  0877               	movf	??___ftge+1,w
   885  002F  00F1               	movwf	___ftge@ff1+1
   886  0030  0878               	movf	??___ftge+2,w
   887  0031  00F2               	movwf	___ftge@ff1+2
   888  0032                     l1335:	
   889  0032  1FF5               	btfss	___ftge@ff2+2,7
   890  0033  2859               	goto	l1339
   891  0034  3000               	movlw	0
   892  0035  00F6               	movwf	??___ftge
   893  0036  3000               	movlw	0
   894  0037  00F7               	movwf	??___ftge+1
   895  0038  3080               	movlw	128
   896  0039  00F8               	movwf	??___ftge+2
   897  003A  0973               	comf	___ftge@ff2,w
   898  003B  00F9               	movwf	??___ftge+3
   899  003C  0974               	comf	___ftge@ff2+1,w
   900  003D  00FA               	movwf	??___ftge+4
   901  003E  0975               	comf	___ftge@ff2+2,w
   902  003F  00FB               	movwf	??___ftge+5
   903  0040  0AF9               	incf	??___ftge+3,f
   904  0041  1903               	skipnz
   905  0042  0AFA               	incf	??___ftge+4,f
   906  0043  1903               	skipnz
   907  0044  0AFB               	incf	??___ftge+5,f
   908  0045  0879               	movf	??___ftge+3,w
   909  0046  07F6               	addwf	??___ftge,f
   910  0047  087A               	movf	??___ftge+4,w
   911  0048  1803               	skipnc
   912  0049  0F7A               	incfsz	??___ftge+4,w
   913  004A  284C               	goto	u2131
   914  004B  284D               	goto	u2132
   915  004C                     u2131:	
   916  004C  07F7               	addwf	??___ftge+1,f
   917  004D                     u2132:	
   918  004D  087B               	movf	??___ftge+5,w
   919  004E  1803               	skipnc
   920  004F  0F7B               	incfsz	??___ftge+5,w
   921  0050  2852               	goto	u2133
   922  0051  2853               	goto	u2134
   923  0052                     u2133:	
   924  0052  07F8               	addwf	??___ftge+2,f
   925  0053                     u2134:	
   926  0053  0876               	movf	??___ftge,w
   927  0054  00F3               	movwf	___ftge@ff2
   928  0055  0877               	movf	??___ftge+1,w
   929  0056  00F4               	movwf	___ftge@ff2+1
   930  0057  0878               	movf	??___ftge+2,w
   931  0058  00F5               	movwf	___ftge@ff2+2
   932  0059                     l1339:	
   933  0059  3080               	movlw	128
   934  005A  06F2               	xorwf	___ftge@ff1+2,f
   935  005B  3080               	movlw	128
   936  005C  06F5               	xorwf	___ftge@ff2+2,f
   937  005D  0875               	movf	___ftge@ff2+2,w
   938  005E  0272               	subwf	___ftge@ff1+2,w
   939  005F  1D03               	skipz
   940  0060  0008               	return
   941  0061  0874               	movf	___ftge@ff2+1,w
   942  0062  0271               	subwf	___ftge@ff1+1,w
   943  0063  1D03               	skipz
   944  0064  0008               	return
   945  0065  0873               	movf	___ftge@ff2,w
   946  0066  0270               	subwf	___ftge@ff1,w
   947  0067  0008               	return
   948  0068                     __end_of___ftge:	
   949  007E                     btemp	set	126	;btemp
   950  007E                     wtemp	set	126
   951  007E                     wtemp0	set	126
   952  0080                     wtemp1	set	128
   953  0082                     wtemp2	set	130
   954  0084                     wtemp3	set	132
   955  0086                     wtemp4	set	134
   956  0088                     wtemp5	set	136
   957  007F                     wtemp6	set	127
   958  007E                     ttemp	set	126
   959  007E                     ttemp0	set	126
   960  0081                     ttemp1	set	129
   961  0084                     ttemp2	set	132
   962  0087                     ttemp3	set	135
   963  007F                     ttemp4	set	127
   964  007E                     ltemp	set	126
   965  007E                     ltemp0	set	126
   966  0082                     ltemp1	set	130
   967  0086                     ltemp2	set	134
   968  0080                     ltemp3	set	128
   969                           
   970                           	psect	text1_split_1
   971  0C7D                     l1395:	
   972                           
   973                           ;7seglibmain.h: 45: else
   974                           ;7seglibmain.h: 46: if((number > 9 && number <= 99) && (port1 != (0) && port2 != (0)))
   975  0C7D  1283               	bcf	3,5	;RP0=0, select bank0
   976  0C7E  1303               	bcf	3,6	;RP1=0, select bank0
   977  0C7F  0845               	movf	print_sevenseg@number+1,w
   978  0C80  3A80               	xorlw	128
   979  0C81  00FF               	movwf	127
   980  0C82  3080               	movlw	128
   981  0C83  027F               	subwf	127,w
   982  0C84  1D03               	skipz
   983  0C85  2C88               	goto	u2325
   984  0C86  300A               	movlw	10
   985  0C87  0244               	subwf	print_sevenseg@number,w
   986  0C88                     u2325:	
   987  0C88  1C03               	skipc
   988  0C89  2FFD               	goto	L6
   989  0C8A  1283               	bcf	3,5	;RP0=0, select bank0
   990  0C8B  1303               	bcf	3,6	;RP1=0, select bank0
   991  0C8C  0845               	movf	print_sevenseg@number+1,w
   992  0C8D  3A80               	xorlw	128
   993  0C8E  00FF               	movwf	127
   994  0C8F  3080               	movlw	128
   995  0C90  027F               	subwf	127,w
   996  0C91  1D03               	skipz
   997  0C92  2C95               	goto	u2335
   998  0C93  3064               	movlw	100
   999  0C94  0244               	subwf	print_sevenseg@number,w
  1000  0C95                     u2335:	
  1001  0C95  1803               	skipnc
  1002  0C96  2FFD               	goto	L6
  1003  0C97  1283               	bcf	3,5	;RP0=0, select bank0
  1004  0C98  1303               	bcf	3,6	;RP1=0, select bank0
  1005  0C99  0849               	movf	print_sevenseg@port1,w
  1006  0C9A  1903               	btfsc	3,2
  1007  0C9B  2FFD               	goto	L6
  1008  0C9C  084A               	movf	print_sevenseg@port2,w
  1009  0C9D  1903               	btfsc	3,2
  1010  0C9E  2FFD               	goto	L6
  1011                           
  1012                           ;7seglibmain.h: 47: {
  1013                           ;7seglibmain.h: 48: if(((number - SETscale[0]) >= 0) && ((number - SETscale[0]) <= 9))
  1014  0C9F  0920               	comf	_SETscale,w
  1015  0CA0  00CB               	movwf	??_print_sevenseg
  1016  0CA1  0921               	comf	_SETscale+1,w
  1017  0CA2  00CC               	movwf	??_print_sevenseg+1
  1018  0CA3  0922               	comf	_SETscale+2,w
  1019  0CA4  00CD               	movwf	??_print_sevenseg+2
  1020  0CA5  0923               	comf	_SETscale+3,w
  1021  0CA6  00CE               	movwf	??_print_sevenseg+3
  1022  0CA7  0ACB               	incf	??_print_sevenseg,f
  1023  0CA8  1903               	skipnz
  1024  0CA9  0ACC               	incf	??_print_sevenseg+1,f
  1025  0CAA  1903               	skipnz
  1026  0CAB  0ACD               	incf	??_print_sevenseg+2,f
  1027  0CAC  1903               	skipnz
  1028  0CAD  0ACE               	incf	??_print_sevenseg+3,f
  1029  0CAE  0844               	movf	print_sevenseg@number,w
  1030  0CAF  00CF               	movwf	??_print_sevenseg+4
  1031  0CB0  0845               	movf	print_sevenseg@number+1,w
  1032  0CB1  00D0               	movwf	??_print_sevenseg+5
  1033  0CB2  3000               	movlw	0
  1034  0CB3  1BD0               	btfsc	??_print_sevenseg+5,7
  1035  0CB4  30FF               	movlw	255
  1036  0CB5  00D1               	movwf	??_print_sevenseg+6
  1037  0CB6  00D2               	movwf	??_print_sevenseg+7
  1038  0CB7  084F               	movf	??_print_sevenseg+4,w
  1039  0CB8  07CB               	addwf	??_print_sevenseg,f
  1040  0CB9  0850               	movf	??_print_sevenseg+5,w
  1041  0CBA  1803               	skipnc
  1042  0CBB  0F50               	incfsz	??_print_sevenseg+5,w
  1043  0CBC  2CBE               	goto	u2360
  1044  0CBD  2CBF               	goto	u2361
  1045  0CBE                     u2360:	
  1046  0CBE  07CC               	addwf	??_print_sevenseg+1,f
  1047  0CBF                     u2361:	
  1048  0CBF  0851               	movf	??_print_sevenseg+6,w
  1049  0CC0  1803               	skipnc
  1050  0CC1  0F51               	incfsz	??_print_sevenseg+6,w
  1051  0CC2  2CC4               	goto	u2362
  1052  0CC3  2CC5               	goto	u2363
  1053  0CC4                     u2362:	
  1054  0CC4  07CD               	addwf	??_print_sevenseg+2,f
  1055  0CC5                     u2363:	
  1056  0CC5  0852               	movf	??_print_sevenseg+7,w
  1057  0CC6  1803               	skipnc
  1058  0CC7  0A52               	incf	??_print_sevenseg+7,w
  1059  0CC8  07CE               	addwf	??_print_sevenseg+3,f
  1060  0CC9  084E               	movf	??_print_sevenseg+3,w
  1061  0CCA  1D03               	btfss	3,2
  1062  0CCB  2CF8               	goto	l1409
  1063  0CCC  084D               	movf	??_print_sevenseg+2,w
  1064  0CCD  1D03               	btfss	3,2
  1065  0CCE  2CF8               	goto	l1409
  1066  0CCF  084C               	movf	??_print_sevenseg+1,w
  1067  0CD0  1D03               	btfss	3,2
  1068  0CD1  2CF8               	goto	l1409
  1069  0CD2  300A               	movlw	10
  1070  0CD3  024B               	subwf	??_print_sevenseg,w
  1071  0CD4  1D03               	skipz
  1072  0CD5  2CD6               	goto	u2373
  1073  0CD6                     u2373:	
  1074  0CD6  1803               	btfsc	3,0
  1075  0CD7  2CF8               	goto	l1409
  1076                           
  1077                           ;7seglibmain.h: 49: {
  1078                           ;7seglibmain.h: 50: SETport[0] = numlib[1];
  1079  0CD8  1683               	bsf	3,5	;RP0=1, select bank1
  1080  0CD9  1303               	bcf	3,6	;RP1=0, select bank1
  1081  0CDA  0825               	movf	((_numlib+1)^(0+128)+4),w
  1082  0CDB  1283               	bcf	3,5	;RP0=0, select bank0
  1083  0CDC  1303               	bcf	3,6	;RP1=0, select bank0
  1084  0CDD  00D8               	movwf	_SETport+1
  1085  0CDE  1683               	bsf	3,5	;RP0=1, select bank1
  1086  0CDF  1303               	bcf	3,6	;RP1=0, select bank1
  1087  0CE0  0824               	movf	(_numlib^(0+128)+4),w
  1088  0CE1  1283               	bcf	3,5	;RP0=0, select bank0
  1089  0CE2  1303               	bcf	3,6	;RP1=0, select bank0
  1090  0CE3  00D7               	movwf	_SETport
  1091                           
  1092                           ;7seglibmain.h: 51: SETport[1] = numlib[number - SETscale[0]];
  1093  0CE4  0320               	decf	_SETscale,w
  1094  0CE5  3AFF               	xorlw	255
  1095  0CE6  0744               	addwf	print_sevenseg@number,w
  1096  0CE7  00CB               	movwf	??_print_sevenseg
  1097  0CE8  3001               	movlw	1
  1098  0CE9                     u2385:	
  1099  0CE9  1003               	clrc
  1100  0CEA  0DCB               	rlf	??_print_sevenseg,f
  1101  0CEB  3EFF               	addlw	-1
  1102  0CEC  1D03               	skipz
  1103  0CED  2CE9               	goto	u2385
  1104  0CEE  1003               	clrc
  1105  0CEF  0D4B               	rlf	??_print_sevenseg,w
  1106  0CF0  3EA0               	addlw	(low (_numlib| 0))& (0+255)
  1107  0CF1  0084               	movwf	4
  1108  0CF2  1383               	bcf	3,7	;select IRP bank1
  1109  0CF3  0800               	movf	0,w
  1110  0CF4  00D9               	movwf	_SETport+2
  1111  0CF5  0A84               	incf	4,f
  1112  0CF6  0800               	movf	0,w
  1113  0CF7  00DA               	movwf	_SETport+3
  1114  0CF8                     l1409:	
  1115                           
  1116                           ;7seglibmain.h: 52: }
  1117                           ;7seglibmain.h: 54: if(((number - SETscale[1]) >= 0) && ((number - SETscale[1]) <= 9))
  1118  0CF8  0924               	comf	_SETscale+4,w
  1119  0CF9  00CB               	movwf	??_print_sevenseg
  1120  0CFA  0925               	comf	_SETscale+5,w
  1121  0CFB  00CC               	movwf	??_print_sevenseg+1
  1122  0CFC  0926               	comf	_SETscale+6,w
  1123  0CFD  00CD               	movwf	??_print_sevenseg+2
  1124  0CFE  0927               	comf	_SETscale+7,w
  1125  0CFF  00CE               	movwf	??_print_sevenseg+3
  1126  0D00  0ACB               	incf	??_print_sevenseg,f
  1127  0D01  1903               	skipnz
  1128  0D02  0ACC               	incf	??_print_sevenseg+1,f
  1129  0D03  1903               	skipnz
  1130  0D04  0ACD               	incf	??_print_sevenseg+2,f
  1131  0D05  1903               	skipnz
  1132  0D06  0ACE               	incf	??_print_sevenseg+3,f
  1133  0D07  0844               	movf	print_sevenseg@number,w
  1134  0D08  00CF               	movwf	??_print_sevenseg+4
  1135  0D09  0845               	movf	print_sevenseg@number+1,w
  1136  0D0A  00D0               	movwf	??_print_sevenseg+5
  1137  0D0B  3000               	movlw	0
  1138  0D0C  1BD0               	btfsc	??_print_sevenseg+5,7
  1139  0D0D  30FF               	movlw	255
  1140  0D0E  00D1               	movwf	??_print_sevenseg+6
  1141  0D0F  00D2               	movwf	??_print_sevenseg+7
  1142  0D10  084F               	movf	??_print_sevenseg+4,w
  1143  0D11  07CB               	addwf	??_print_sevenseg,f
  1144  0D12  0850               	movf	??_print_sevenseg+5,w
  1145  0D13  1803               	skipnc
  1146  0D14  0F50               	incfsz	??_print_sevenseg+5,w
  1147  0D15  2D17               	goto	u2390
  1148  0D16  2D18               	goto	u2391
  1149  0D17                     u2390:	
  1150  0D17  07CC               	addwf	??_print_sevenseg+1,f
  1151  0D18                     u2391:	
  1152  0D18  0851               	movf	??_print_sevenseg+6,w
  1153  0D19  1803               	skipnc
  1154  0D1A  0F51               	incfsz	??_print_sevenseg+6,w
  1155  0D1B  2D1D               	goto	u2392
  1156  0D1C  2D1E               	goto	u2393
  1157  0D1D                     u2392:	
  1158  0D1D  07CD               	addwf	??_print_sevenseg+2,f
  1159  0D1E                     u2393:	
  1160  0D1E  0852               	movf	??_print_sevenseg+7,w
  1161  0D1F  1803               	skipnc
  1162  0D20  0A52               	incf	??_print_sevenseg+7,w
  1163  0D21  07CE               	addwf	??_print_sevenseg+3,f
  1164  0D22  084E               	movf	??_print_sevenseg+3,w
  1165  0D23  1D03               	btfss	3,2
  1166  0D24  2D51               	goto	l1415
  1167  0D25  084D               	movf	??_print_sevenseg+2,w
  1168  0D26  1D03               	btfss	3,2
  1169  0D27  2D51               	goto	l1415
  1170  0D28  084C               	movf	??_print_sevenseg+1,w
  1171  0D29  1D03               	btfss	3,2
  1172  0D2A  2D51               	goto	l1415
  1173  0D2B  300A               	movlw	10
  1174  0D2C  024B               	subwf	??_print_sevenseg,w
  1175  0D2D  1D03               	skipz
  1176  0D2E  2D2F               	goto	u2403
  1177  0D2F                     u2403:	
  1178  0D2F  1803               	btfsc	3,0
  1179  0D30  2D51               	goto	l1415
  1180                           
  1181                           ;7seglibmain.h: 55: {
  1182                           ;7seglibmain.h: 56: SETport[0] = numlib[2];
  1183  0D31  1683               	bsf	3,5	;RP0=1, select bank1
  1184  0D32  1303               	bcf	3,6	;RP1=0, select bank1
  1185  0D33  0829               	movf	((_numlib+1)^(0+128)+8),w
  1186  0D34  1283               	bcf	3,5	;RP0=0, select bank0
  1187  0D35  1303               	bcf	3,6	;RP1=0, select bank0
  1188  0D36  00D8               	movwf	_SETport+1
  1189  0D37  1683               	bsf	3,5	;RP0=1, select bank1
  1190  0D38  1303               	bcf	3,6	;RP1=0, select bank1
  1191  0D39  0828               	movf	(_numlib^(0+128)+8),w
  1192  0D3A  1283               	bcf	3,5	;RP0=0, select bank0
  1193  0D3B  1303               	bcf	3,6	;RP1=0, select bank0
  1194  0D3C  00D7               	movwf	_SETport
  1195                           
  1196                           ;7seglibmain.h: 57: SETport[1] = numlib[number - SETscale[1]];
  1197  0D3D  0324               	decf	_SETscale+4,w
  1198  0D3E  3AFF               	xorlw	255
  1199  0D3F  0744               	addwf	print_sevenseg@number,w
  1200  0D40  00CB               	movwf	??_print_sevenseg
  1201  0D41  3001               	movlw	1
  1202  0D42                     u2415:	
  1203  0D42  1003               	clrc
  1204  0D43  0DCB               	rlf	??_print_sevenseg,f
  1205  0D44  3EFF               	addlw	-1
  1206  0D45  1D03               	skipz
  1207  0D46  2D42               	goto	u2415
  1208  0D47  1003               	clrc
  1209  0D48  0D4B               	rlf	??_print_sevenseg,w
  1210  0D49  3EA0               	addlw	(low (_numlib| 0))& (0+255)
  1211  0D4A  0084               	movwf	4
  1212  0D4B  1383               	bcf	3,7	;select IRP bank1
  1213  0D4C  0800               	movf	0,w
  1214  0D4D  00D9               	movwf	_SETport+2
  1215  0D4E  0A84               	incf	4,f
  1216  0D4F  0800               	movf	0,w
  1217  0D50  00DA               	movwf	_SETport+3
  1218  0D51                     l1415:	
  1219                           
  1220                           ;7seglibmain.h: 58: }
  1221                           ;7seglibmain.h: 60: if(((number - SETscale[2]) >= 0) && ((number - SETscale[2]) <= 9))
  1222  0D51  0928               	comf	_SETscale+8,w
  1223  0D52  00CB               	movwf	??_print_sevenseg
  1224  0D53  0929               	comf	_SETscale+9,w
  1225  0D54  00CC               	movwf	??_print_sevenseg+1
  1226  0D55  092A               	comf	_SETscale+10,w
  1227  0D56  00CD               	movwf	??_print_sevenseg+2
  1228  0D57  092B               	comf	_SETscale+11,w
  1229  0D58  00CE               	movwf	??_print_sevenseg+3
  1230  0D59  0ACB               	incf	??_print_sevenseg,f
  1231  0D5A  1903               	skipnz
  1232  0D5B  0ACC               	incf	??_print_sevenseg+1,f
  1233  0D5C  1903               	skipnz
  1234  0D5D  0ACD               	incf	??_print_sevenseg+2,f
  1235  0D5E  1903               	skipnz
  1236  0D5F  0ACE               	incf	??_print_sevenseg+3,f
  1237  0D60  0844               	movf	print_sevenseg@number,w
  1238  0D61  00CF               	movwf	??_print_sevenseg+4
  1239  0D62  0845               	movf	print_sevenseg@number+1,w
  1240  0D63  00D0               	movwf	??_print_sevenseg+5
  1241  0D64  3000               	movlw	0
  1242  0D65  1BD0               	btfsc	??_print_sevenseg+5,7
  1243  0D66  30FF               	movlw	255
  1244  0D67  00D1               	movwf	??_print_sevenseg+6
  1245  0D68  00D2               	movwf	??_print_sevenseg+7
  1246  0D69  084F               	movf	??_print_sevenseg+4,w
  1247  0D6A  07CB               	addwf	??_print_sevenseg,f
  1248  0D6B  0850               	movf	??_print_sevenseg+5,w
  1249  0D6C  1803               	skipnc
  1250  0D6D  0F50               	incfsz	??_print_sevenseg+5,w
  1251  0D6E  2D70               	goto	u2420
  1252  0D6F  2D71               	goto	u2421
  1253  0D70                     u2420:	
  1254  0D70  07CC               	addwf	??_print_sevenseg+1,f
  1255  0D71                     u2421:	
  1256  0D71  0851               	movf	??_print_sevenseg+6,w
  1257  0D72  1803               	skipnc
  1258  0D73  0F51               	incfsz	??_print_sevenseg+6,w
  1259  0D74  2D76               	goto	u2422
  1260  0D75  2D77               	goto	u2423
  1261  0D76                     u2422:	
  1262  0D76  07CD               	addwf	??_print_sevenseg+2,f
  1263  0D77                     u2423:	
  1264  0D77  0852               	movf	??_print_sevenseg+7,w
  1265  0D78  1803               	skipnc
  1266  0D79  0A52               	incf	??_print_sevenseg+7,w
  1267  0D7A  07CE               	addwf	??_print_sevenseg+3,f
  1268  0D7B  084E               	movf	??_print_sevenseg+3,w
  1269  0D7C  1D03               	btfss	3,2
  1270  0D7D  2DAA               	goto	l1421
  1271  0D7E  084D               	movf	??_print_sevenseg+2,w
  1272  0D7F  1D03               	btfss	3,2
  1273  0D80  2DAA               	goto	l1421
  1274  0D81  084C               	movf	??_print_sevenseg+1,w
  1275  0D82  1D03               	btfss	3,2
  1276  0D83  2DAA               	goto	l1421
  1277  0D84  300A               	movlw	10
  1278  0D85  024B               	subwf	??_print_sevenseg,w
  1279  0D86  1D03               	skipz
  1280  0D87  2D88               	goto	u2433
  1281  0D88                     u2433:	
  1282  0D88  1803               	btfsc	3,0
  1283  0D89  2DAA               	goto	l1421
  1284                           
  1285                           ;7seglibmain.h: 61: {
  1286                           ;7seglibmain.h: 62: SETport[0] = numlib[3];
  1287  0D8A  1683               	bsf	3,5	;RP0=1, select bank1
  1288  0D8B  1303               	bcf	3,6	;RP1=0, select bank1
  1289  0D8C  082D               	movf	((_numlib+1)^(0+128)+12),w
  1290  0D8D  1283               	bcf	3,5	;RP0=0, select bank0
  1291  0D8E  1303               	bcf	3,6	;RP1=0, select bank0
  1292  0D8F  00D8               	movwf	_SETport+1
  1293  0D90  1683               	bsf	3,5	;RP0=1, select bank1
  1294  0D91  1303               	bcf	3,6	;RP1=0, select bank1
  1295  0D92  082C               	movf	(_numlib^(0+128)+12),w
  1296  0D93  1283               	bcf	3,5	;RP0=0, select bank0
  1297  0D94  1303               	bcf	3,6	;RP1=0, select bank0
  1298  0D95  00D7               	movwf	_SETport
  1299                           
  1300                           ;7seglibmain.h: 63: SETport[1] = numlib[number - SETscale[2]];
  1301  0D96  0328               	decf	_SETscale+8,w
  1302  0D97  3AFF               	xorlw	255
  1303  0D98  0744               	addwf	print_sevenseg@number,w
  1304  0D99  00CB               	movwf	??_print_sevenseg
  1305  0D9A  3001               	movlw	1
  1306  0D9B                     u2445:	
  1307  0D9B  1003               	clrc
  1308  0D9C  0DCB               	rlf	??_print_sevenseg,f
  1309  0D9D  3EFF               	addlw	-1
  1310  0D9E  1D03               	skipz
  1311  0D9F  2D9B               	goto	u2445
  1312  0DA0  1003               	clrc
  1313  0DA1  0D4B               	rlf	??_print_sevenseg,w
  1314  0DA2  3EA0               	addlw	(low (_numlib| 0))& (0+255)
  1315  0DA3  0084               	movwf	4
  1316  0DA4  1383               	bcf	3,7	;select IRP bank1
  1317  0DA5  0800               	movf	0,w
  1318  0DA6  00D9               	movwf	_SETport+2
  1319  0DA7  0A84               	incf	4,f
  1320  0DA8  0800               	movf	0,w
  1321  0DA9  00DA               	movwf	_SETport+3
  1322  0DAA                     l1421:	
  1323                           
  1324                           ;7seglibmain.h: 64: }
  1325                           ;7seglibmain.h: 66: if(((number - SETscale[3]) >= 0) && ((number - SETscale[3]) <= 9))
  1326  0DAA  092C               	comf	_SETscale+12,w
  1327  0DAB  00CB               	movwf	??_print_sevenseg
  1328  0DAC  092D               	comf	_SETscale+13,w
  1329  0DAD  00CC               	movwf	??_print_sevenseg+1
  1330  0DAE  092E               	comf	_SETscale+14,w
  1331  0DAF  00CD               	movwf	??_print_sevenseg+2
  1332  0DB0  092F               	comf	_SETscale+15,w
  1333  0DB1  00CE               	movwf	??_print_sevenseg+3
  1334  0DB2  0ACB               	incf	??_print_sevenseg,f
  1335  0DB3  1903               	skipnz
  1336  0DB4  0ACC               	incf	??_print_sevenseg+1,f
  1337  0DB5  1903               	skipnz
  1338  0DB6  0ACD               	incf	??_print_sevenseg+2,f
  1339  0DB7  1903               	skipnz
  1340  0DB8  0ACE               	incf	??_print_sevenseg+3,f
  1341  0DB9  0844               	movf	print_sevenseg@number,w
  1342  0DBA  00CF               	movwf	??_print_sevenseg+4
  1343  0DBB  0845               	movf	print_sevenseg@number+1,w
  1344  0DBC  00D0               	movwf	??_print_sevenseg+5
  1345  0DBD  3000               	movlw	0
  1346  0DBE  1BD0               	btfsc	??_print_sevenseg+5,7
  1347  0DBF  30FF               	movlw	255
  1348  0DC0  00D1               	movwf	??_print_sevenseg+6
  1349  0DC1  00D2               	movwf	??_print_sevenseg+7
  1350  0DC2  084F               	movf	??_print_sevenseg+4,w
  1351  0DC3  07CB               	addwf	??_print_sevenseg,f
  1352  0DC4  0850               	movf	??_print_sevenseg+5,w
  1353  0DC5  1803               	skipnc
  1354  0DC6  0F50               	incfsz	??_print_sevenseg+5,w
  1355  0DC7  2DC9               	goto	u2450
  1356  0DC8  2DCA               	goto	u2451
  1357  0DC9                     u2450:	
  1358  0DC9  07CC               	addwf	??_print_sevenseg+1,f
  1359  0DCA                     u2451:	
  1360  0DCA  0851               	movf	??_print_sevenseg+6,w
  1361  0DCB  1803               	skipnc
  1362  0DCC  0F51               	incfsz	??_print_sevenseg+6,w
  1363  0DCD  2DCF               	goto	u2452
  1364  0DCE  2DD0               	goto	u2453
  1365  0DCF                     u2452:	
  1366  0DCF  07CD               	addwf	??_print_sevenseg+2,f
  1367  0DD0                     u2453:	
  1368  0DD0  0852               	movf	??_print_sevenseg+7,w
  1369  0DD1  1803               	skipnc
  1370  0DD2  0A52               	incf	??_print_sevenseg+7,w
  1371  0DD3  07CE               	addwf	??_print_sevenseg+3,f
  1372  0DD4  084E               	movf	??_print_sevenseg+3,w
  1373  0DD5  1D03               	btfss	3,2
  1374  0DD6  2E03               	goto	l1427
  1375  0DD7  084D               	movf	??_print_sevenseg+2,w
  1376  0DD8  1D03               	btfss	3,2
  1377  0DD9  2E03               	goto	l1427
  1378  0DDA  084C               	movf	??_print_sevenseg+1,w
  1379  0DDB  1D03               	btfss	3,2
  1380  0DDC  2E03               	goto	l1427
  1381  0DDD  300A               	movlw	10
  1382  0DDE  024B               	subwf	??_print_sevenseg,w
  1383  0DDF  1D03               	skipz
  1384  0DE0  2DE1               	goto	u2463
  1385  0DE1                     u2463:	
  1386  0DE1  1803               	btfsc	3,0
  1387  0DE2  2E03               	goto	l1427
  1388                           
  1389                           ;7seglibmain.h: 67: {
  1390                           ;7seglibmain.h: 68: SETport[0] = numlib[4];
  1391  0DE3  1683               	bsf	3,5	;RP0=1, select bank1
  1392  0DE4  1303               	bcf	3,6	;RP1=0, select bank1
  1393  0DE5  0831               	movf	((_numlib+1)^(0+128)+16),w
  1394  0DE6  1283               	bcf	3,5	;RP0=0, select bank0
  1395  0DE7  1303               	bcf	3,6	;RP1=0, select bank0
  1396  0DE8  00D8               	movwf	_SETport+1
  1397  0DE9  1683               	bsf	3,5	;RP0=1, select bank1
  1398  0DEA  1303               	bcf	3,6	;RP1=0, select bank1
  1399  0DEB  0830               	movf	(_numlib^(0+128)+16),w
  1400  0DEC  1283               	bcf	3,5	;RP0=0, select bank0
  1401  0DED  1303               	bcf	3,6	;RP1=0, select bank0
  1402  0DEE  00D7               	movwf	_SETport
  1403                           
  1404                           ;7seglibmain.h: 69: SETport[1] = numlib[number - SETscale[3]];
  1405  0DEF  032C               	decf	_SETscale+12,w
  1406  0DF0  3AFF               	xorlw	255
  1407  0DF1  0744               	addwf	print_sevenseg@number,w
  1408  0DF2  00CB               	movwf	??_print_sevenseg
  1409  0DF3  3001               	movlw	1
  1410  0DF4                     u2475:	
  1411  0DF4  1003               	clrc
  1412  0DF5  0DCB               	rlf	??_print_sevenseg,f
  1413  0DF6  3EFF               	addlw	-1
  1414  0DF7  1D03               	skipz
  1415  0DF8  2DF4               	goto	u2475
  1416  0DF9  1003               	clrc
  1417  0DFA  0D4B               	rlf	??_print_sevenseg,w
  1418  0DFB  3EA0               	addlw	(low (_numlib| 0))& (0+255)
  1419  0DFC  0084               	movwf	4
  1420  0DFD  1383               	bcf	3,7	;select IRP bank1
  1421  0DFE  0800               	movf	0,w
  1422  0DFF  00D9               	movwf	_SETport+2
  1423  0E00  0A84               	incf	4,f
  1424  0E01  0800               	movf	0,w
  1425  0E02  00DA               	movwf	_SETport+3
  1426  0E03                     l1427:	
  1427                           
  1428                           ;7seglibmain.h: 70: }
  1429                           ;7seglibmain.h: 72: if(((number - SETscale[4]) >= 0) && ((number - SETscale[4]) <= 9))
  1430  0E03  0930               	comf	_SETscale+16,w
  1431  0E04  00CB               	movwf	??_print_sevenseg
  1432  0E05  0931               	comf	_SETscale+17,w
  1433  0E06  00CC               	movwf	??_print_sevenseg+1
  1434  0E07  0932               	comf	_SETscale+18,w
  1435  0E08  00CD               	movwf	??_print_sevenseg+2
  1436  0E09  0933               	comf	_SETscale+19,w
  1437  0E0A  00CE               	movwf	??_print_sevenseg+3
  1438  0E0B  0ACB               	incf	??_print_sevenseg,f
  1439  0E0C  1903               	skipnz
  1440  0E0D  0ACC               	incf	??_print_sevenseg+1,f
  1441  0E0E  1903               	skipnz
  1442  0E0F  0ACD               	incf	??_print_sevenseg+2,f
  1443  0E10  1903               	skipnz
  1444  0E11  0ACE               	incf	??_print_sevenseg+3,f
  1445  0E12  0844               	movf	print_sevenseg@number,w
  1446  0E13  00CF               	movwf	??_print_sevenseg+4
  1447  0E14  0845               	movf	print_sevenseg@number+1,w
  1448  0E15  00D0               	movwf	??_print_sevenseg+5
  1449  0E16  3000               	movlw	0
  1450  0E17  1BD0               	btfsc	??_print_sevenseg+5,7
  1451  0E18  30FF               	movlw	255
  1452  0E19  00D1               	movwf	??_print_sevenseg+6
  1453  0E1A  00D2               	movwf	??_print_sevenseg+7
  1454  0E1B  084F               	movf	??_print_sevenseg+4,w
  1455  0E1C  07CB               	addwf	??_print_sevenseg,f
  1456  0E1D  0850               	movf	??_print_sevenseg+5,w
  1457  0E1E  1803               	skipnc
  1458  0E1F  0F50               	incfsz	??_print_sevenseg+5,w
  1459  0E20  2E22               	goto	u2480
  1460  0E21  2E23               	goto	u2481
  1461  0E22                     u2480:	
  1462  0E22  07CC               	addwf	??_print_sevenseg+1,f
  1463  0E23                     u2481:	
  1464  0E23  0851               	movf	??_print_sevenseg+6,w
  1465  0E24  1803               	skipnc
  1466  0E25  0F51               	incfsz	??_print_sevenseg+6,w
  1467  0E26  2E28               	goto	u2482
  1468  0E27  2E29               	goto	u2483
  1469  0E28                     u2482:	
  1470  0E28  07CD               	addwf	??_print_sevenseg+2,f
  1471  0E29                     u2483:	
  1472  0E29  0852               	movf	??_print_sevenseg+7,w
  1473  0E2A  1803               	skipnc
  1474  0E2B  0A52               	incf	??_print_sevenseg+7,w
  1475  0E2C  07CE               	addwf	??_print_sevenseg+3,f
  1476  0E2D  084E               	movf	??_print_sevenseg+3,w
  1477  0E2E  1D03               	btfss	3,2
  1478  0E2F  2E5C               	goto	l1433
  1479  0E30  084D               	movf	??_print_sevenseg+2,w
  1480  0E31  1D03               	btfss	3,2
  1481  0E32  2E5C               	goto	l1433
  1482  0E33  084C               	movf	??_print_sevenseg+1,w
  1483  0E34  1D03               	btfss	3,2
  1484  0E35  2E5C               	goto	l1433
  1485  0E36  300A               	movlw	10
  1486  0E37  024B               	subwf	??_print_sevenseg,w
  1487  0E38  1D03               	skipz
  1488  0E39  2E3A               	goto	u2493
  1489  0E3A                     u2493:	
  1490  0E3A  1803               	btfsc	3,0
  1491  0E3B  2E5C               	goto	l1433
  1492                           
  1493                           ;7seglibmain.h: 73: {
  1494                           ;7seglibmain.h: 74: SETport[0] = numlib[5];
  1495  0E3C  1683               	bsf	3,5	;RP0=1, select bank1
  1496  0E3D  1303               	bcf	3,6	;RP1=0, select bank1
  1497  0E3E  0835               	movf	((_numlib+1)^(0+128)+20),w
  1498  0E3F  1283               	bcf	3,5	;RP0=0, select bank0
  1499  0E40  1303               	bcf	3,6	;RP1=0, select bank0
  1500  0E41  00D8               	movwf	_SETport+1
  1501  0E42  1683               	bsf	3,5	;RP0=1, select bank1
  1502  0E43  1303               	bcf	3,6	;RP1=0, select bank1
  1503  0E44  0834               	movf	(_numlib^(0+128)+20),w
  1504  0E45  1283               	bcf	3,5	;RP0=0, select bank0
  1505  0E46  1303               	bcf	3,6	;RP1=0, select bank0
  1506  0E47  00D7               	movwf	_SETport
  1507                           
  1508                           ;7seglibmain.h: 75: SETport[1] = numlib[number - SETscale[4]];
  1509  0E48  0330               	decf	_SETscale+16,w
  1510  0E49  3AFF               	xorlw	255
  1511  0E4A  0744               	addwf	print_sevenseg@number,w
  1512  0E4B  00CB               	movwf	??_print_sevenseg
  1513  0E4C  3001               	movlw	1
  1514  0E4D                     u2505:	
  1515  0E4D  1003               	clrc
  1516  0E4E  0DCB               	rlf	??_print_sevenseg,f
  1517  0E4F  3EFF               	addlw	-1
  1518  0E50  1D03               	skipz
  1519  0E51  2E4D               	goto	u2505
  1520  0E52  1003               	clrc
  1521  0E53  0D4B               	rlf	??_print_sevenseg,w
  1522  0E54  3EA0               	addlw	(low (_numlib| 0))& (0+255)
  1523  0E55  0084               	movwf	4
  1524  0E56  1383               	bcf	3,7	;select IRP bank1
  1525  0E57  0800               	movf	0,w
  1526  0E58  00D9               	movwf	_SETport+2
  1527  0E59  0A84               	incf	4,f
  1528  0E5A  0800               	movf	0,w
  1529  0E5B  00DA               	movwf	_SETport+3
  1530  0E5C                     l1433:	
  1531                           
  1532                           ;7seglibmain.h: 76: }
  1533                           ;7seglibmain.h: 78: if(((number - SETscale[5]) >= 0) && ((number - SETscale[5]) <= 9))
  1534  0E5C  0934               	comf	_SETscale+20,w
  1535  0E5D  00CB               	movwf	??_print_sevenseg
  1536  0E5E  0935               	comf	_SETscale+21,w
  1537  0E5F  00CC               	movwf	??_print_sevenseg+1
  1538  0E60  0936               	comf	_SETscale+22,w
  1539  0E61  00CD               	movwf	??_print_sevenseg+2
  1540  0E62  0937               	comf	_SETscale+23,w
  1541  0E63  00CE               	movwf	??_print_sevenseg+3
  1542  0E64  0ACB               	incf	??_print_sevenseg,f
  1543  0E65  1903               	skipnz
  1544  0E66  0ACC               	incf	??_print_sevenseg+1,f
  1545  0E67  1903               	skipnz
  1546  0E68  0ACD               	incf	??_print_sevenseg+2,f
  1547  0E69  1903               	skipnz
  1548  0E6A  0ACE               	incf	??_print_sevenseg+3,f
  1549  0E6B  0844               	movf	print_sevenseg@number,w
  1550  0E6C  00CF               	movwf	??_print_sevenseg+4
  1551  0E6D  0845               	movf	print_sevenseg@number+1,w
  1552  0E6E  00D0               	movwf	??_print_sevenseg+5
  1553  0E6F  3000               	movlw	0
  1554  0E70  1BD0               	btfsc	??_print_sevenseg+5,7
  1555  0E71  30FF               	movlw	255
  1556  0E72  00D1               	movwf	??_print_sevenseg+6
  1557  0E73  00D2               	movwf	??_print_sevenseg+7
  1558  0E74  084F               	movf	??_print_sevenseg+4,w
  1559  0E75  07CB               	addwf	??_print_sevenseg,f
  1560  0E76  0850               	movf	??_print_sevenseg+5,w
  1561  0E77  1803               	skipnc
  1562  0E78  0F50               	incfsz	??_print_sevenseg+5,w
  1563  0E79  2E7B               	goto	u2510
  1564  0E7A  2E7C               	goto	u2511
  1565  0E7B                     u2510:	
  1566  0E7B  07CC               	addwf	??_print_sevenseg+1,f
  1567  0E7C                     u2511:	
  1568  0E7C  0851               	movf	??_print_sevenseg+6,w
  1569  0E7D  1803               	skipnc
  1570  0E7E  0F51               	incfsz	??_print_sevenseg+6,w
  1571  0E7F  2E81               	goto	u2512
  1572  0E80  2E82               	goto	u2513
  1573  0E81                     u2512:	
  1574  0E81  07CD               	addwf	??_print_sevenseg+2,f
  1575  0E82                     u2513:	
  1576  0E82  0852               	movf	??_print_sevenseg+7,w
  1577  0E83  1803               	skipnc
  1578  0E84  0A52               	incf	??_print_sevenseg+7,w
  1579  0E85  07CE               	addwf	??_print_sevenseg+3,f
  1580  0E86  084E               	movf	??_print_sevenseg+3,w
  1581  0E87  1D03               	btfss	3,2
  1582  0E88  2EB5               	goto	l1439
  1583  0E89  084D               	movf	??_print_sevenseg+2,w
  1584  0E8A  1D03               	btfss	3,2
  1585  0E8B  2EB5               	goto	l1439
  1586  0E8C  084C               	movf	??_print_sevenseg+1,w
  1587  0E8D  1D03               	btfss	3,2
  1588  0E8E  2EB5               	goto	l1439
  1589  0E8F  300A               	movlw	10
  1590  0E90  024B               	subwf	??_print_sevenseg,w
  1591  0E91  1D03               	skipz
  1592  0E92  2E93               	goto	u2523
  1593  0E93                     u2523:	
  1594  0E93  1803               	btfsc	3,0
  1595  0E94  2EB5               	goto	l1439
  1596                           
  1597                           ;7seglibmain.h: 79: {
  1598                           ;7seglibmain.h: 80: SETport[0] = numlib[6];
  1599  0E95  1683               	bsf	3,5	;RP0=1, select bank1
  1600  0E96  1303               	bcf	3,6	;RP1=0, select bank1
  1601  0E97  0839               	movf	((_numlib+1)^(0+128)+24),w
  1602  0E98  1283               	bcf	3,5	;RP0=0, select bank0
  1603  0E99  1303               	bcf	3,6	;RP1=0, select bank0
  1604  0E9A  00D8               	movwf	_SETport+1
  1605  0E9B  1683               	bsf	3,5	;RP0=1, select bank1
  1606  0E9C  1303               	bcf	3,6	;RP1=0, select bank1
  1607  0E9D  0838               	movf	(_numlib^(0+128)+24),w
  1608  0E9E  1283               	bcf	3,5	;RP0=0, select bank0
  1609  0E9F  1303               	bcf	3,6	;RP1=0, select bank0
  1610  0EA0  00D7               	movwf	_SETport
  1611                           
  1612                           ;7seglibmain.h: 81: SETport[1] = numlib[number - SETscale[5]];
  1613  0EA1  0334               	decf	_SETscale+20,w
  1614  0EA2  3AFF               	xorlw	255
  1615  0EA3  0744               	addwf	print_sevenseg@number,w
  1616  0EA4  00CB               	movwf	??_print_sevenseg
  1617  0EA5  3001               	movlw	1
  1618  0EA6                     u2535:	
  1619  0EA6  1003               	clrc
  1620  0EA7  0DCB               	rlf	??_print_sevenseg,f
  1621  0EA8  3EFF               	addlw	-1
  1622  0EA9  1D03               	skipz
  1623  0EAA  2EA6               	goto	u2535
  1624  0EAB  1003               	clrc
  1625  0EAC  0D4B               	rlf	??_print_sevenseg,w
  1626  0EAD  3EA0               	addlw	(low (_numlib| 0))& (0+255)
  1627  0EAE  0084               	movwf	4
  1628  0EAF  1383               	bcf	3,7	;select IRP bank1
  1629  0EB0  0800               	movf	0,w
  1630  0EB1  00D9               	movwf	_SETport+2
  1631  0EB2  0A84               	incf	4,f
  1632  0EB3  0800               	movf	0,w
  1633  0EB4  00DA               	movwf	_SETport+3
  1634  0EB5                     l1439:	
  1635                           
  1636                           ;7seglibmain.h: 82: }
  1637                           ;7seglibmain.h: 84: if(((number - SETscale[6]) >= 0) && ((number - SETscale[6]) <= 9))
  1638  0EB5  0938               	comf	_SETscale+24,w
  1639  0EB6  00CB               	movwf	??_print_sevenseg
  1640  0EB7  0939               	comf	_SETscale+25,w
  1641  0EB8  00CC               	movwf	??_print_sevenseg+1
  1642  0EB9  093A               	comf	_SETscale+26,w
  1643  0EBA  00CD               	movwf	??_print_sevenseg+2
  1644  0EBB  093B               	comf	_SETscale+27,w
  1645  0EBC  00CE               	movwf	??_print_sevenseg+3
  1646  0EBD  0ACB               	incf	??_print_sevenseg,f
  1647  0EBE  1903               	skipnz
  1648  0EBF  0ACC               	incf	??_print_sevenseg+1,f
  1649  0EC0  1903               	skipnz
  1650  0EC1  0ACD               	incf	??_print_sevenseg+2,f
  1651  0EC2  1903               	skipnz
  1652  0EC3  0ACE               	incf	??_print_sevenseg+3,f
  1653  0EC4  0844               	movf	print_sevenseg@number,w
  1654  0EC5  00CF               	movwf	??_print_sevenseg+4
  1655  0EC6  0845               	movf	print_sevenseg@number+1,w
  1656  0EC7  00D0               	movwf	??_print_sevenseg+5
  1657  0EC8  3000               	movlw	0
  1658  0EC9  1BD0               	btfsc	??_print_sevenseg+5,7
  1659  0ECA  30FF               	movlw	255
  1660  0ECB  00D1               	movwf	??_print_sevenseg+6
  1661  0ECC  00D2               	movwf	??_print_sevenseg+7
  1662  0ECD  084F               	movf	??_print_sevenseg+4,w
  1663  0ECE  07CB               	addwf	??_print_sevenseg,f
  1664  0ECF  0850               	movf	??_print_sevenseg+5,w
  1665  0ED0  1803               	skipnc
  1666  0ED1  0F50               	incfsz	??_print_sevenseg+5,w
  1667  0ED2  2ED4               	goto	u2540
  1668  0ED3  2ED5               	goto	u2541
  1669  0ED4                     u2540:	
  1670  0ED4  07CC               	addwf	??_print_sevenseg+1,f
  1671  0ED5                     u2541:	
  1672  0ED5  0851               	movf	??_print_sevenseg+6,w
  1673  0ED6  1803               	skipnc
  1674  0ED7  0F51               	incfsz	??_print_sevenseg+6,w
  1675  0ED8  2EDA               	goto	u2542
  1676  0ED9  2EDB               	goto	u2543
  1677  0EDA                     u2542:	
  1678  0EDA  07CD               	addwf	??_print_sevenseg+2,f
  1679  0EDB                     u2543:	
  1680  0EDB  0852               	movf	??_print_sevenseg+7,w
  1681  0EDC  1803               	skipnc
  1682  0EDD  0A52               	incf	??_print_sevenseg+7,w
  1683  0EDE  07CE               	addwf	??_print_sevenseg+3,f
  1684  0EDF  084E               	movf	??_print_sevenseg+3,w
  1685  0EE0  1D03               	btfss	3,2
  1686  0EE1  2F0E               	goto	l1445
  1687  0EE2  084D               	movf	??_print_sevenseg+2,w
  1688  0EE3  1D03               	btfss	3,2
  1689  0EE4  2F0E               	goto	l1445
  1690  0EE5  084C               	movf	??_print_sevenseg+1,w
  1691  0EE6  1D03               	btfss	3,2
  1692  0EE7  2F0E               	goto	l1445
  1693  0EE8  300A               	movlw	10
  1694  0EE9  024B               	subwf	??_print_sevenseg,w
  1695  0EEA  1D03               	skipz
  1696  0EEB  2EEC               	goto	u2553
  1697  0EEC                     u2553:	
  1698  0EEC  1803               	btfsc	3,0
  1699  0EED  2F0E               	goto	l1445
  1700                           
  1701                           ;7seglibmain.h: 85: {
  1702                           ;7seglibmain.h: 86: SETport[0] = numlib[7];
  1703  0EEE  1683               	bsf	3,5	;RP0=1, select bank1
  1704  0EEF  1303               	bcf	3,6	;RP1=0, select bank1
  1705  0EF0  083D               	movf	((_numlib+1)^(0+128)+28),w
  1706  0EF1  1283               	bcf	3,5	;RP0=0, select bank0
  1707  0EF2  1303               	bcf	3,6	;RP1=0, select bank0
  1708  0EF3  00D8               	movwf	_SETport+1
  1709  0EF4  1683               	bsf	3,5	;RP0=1, select bank1
  1710  0EF5  1303               	bcf	3,6	;RP1=0, select bank1
  1711  0EF6  083C               	movf	(_numlib^(0+128)+28),w
  1712  0EF7  1283               	bcf	3,5	;RP0=0, select bank0
  1713  0EF8  1303               	bcf	3,6	;RP1=0, select bank0
  1714  0EF9  00D7               	movwf	_SETport
  1715                           
  1716                           ;7seglibmain.h: 87: SETport[1] = numlib[number - SETscale[6]];
  1717  0EFA  0338               	decf	_SETscale+24,w
  1718  0EFB  3AFF               	xorlw	255
  1719  0EFC  0744               	addwf	print_sevenseg@number,w
  1720  0EFD  00CB               	movwf	??_print_sevenseg
  1721  0EFE  3001               	movlw	1
  1722  0EFF                     u2565:	
  1723  0EFF  1003               	clrc
  1724  0F00  0DCB               	rlf	??_print_sevenseg,f
  1725  0F01  3EFF               	addlw	-1
  1726  0F02  1D03               	skipz
  1727  0F03  2EFF               	goto	u2565
  1728  0F04  1003               	clrc
  1729  0F05  0D4B               	rlf	??_print_sevenseg,w
  1730  0F06  3EA0               	addlw	(low (_numlib| 0))& (0+255)
  1731  0F07  0084               	movwf	4
  1732  0F08  1383               	bcf	3,7	;select IRP bank1
  1733  0F09  0800               	movf	0,w
  1734  0F0A  00D9               	movwf	_SETport+2
  1735  0F0B  0A84               	incf	4,f
  1736  0F0C  0800               	movf	0,w
  1737  0F0D  00DA               	movwf	_SETport+3
  1738  0F0E                     l1445:	
  1739                           
  1740                           ;7seglibmain.h: 88: }
  1741                           ;7seglibmain.h: 90: if(((number - SETscale[7]) >= 0) && ((number - SETscale[7]) <= 9))
  1742  0F0E  093C               	comf	_SETscale+28,w
  1743  0F0F  00CB               	movwf	??_print_sevenseg
  1744  0F10  093D               	comf	_SETscale+29,w
  1745  0F11  00CC               	movwf	??_print_sevenseg+1
  1746  0F12  093E               	comf	_SETscale+30,w
  1747  0F13  00CD               	movwf	??_print_sevenseg+2
  1748  0F14  093F               	comf	_SETscale+31,w
  1749  0F15  00CE               	movwf	??_print_sevenseg+3
  1750  0F16  0ACB               	incf	??_print_sevenseg,f
  1751  0F17  1903               	skipnz
  1752  0F18  0ACC               	incf	??_print_sevenseg+1,f
  1753  0F19  1903               	skipnz
  1754  0F1A  0ACD               	incf	??_print_sevenseg+2,f
  1755  0F1B  1903               	skipnz
  1756  0F1C  0ACE               	incf	??_print_sevenseg+3,f
  1757  0F1D  0844               	movf	print_sevenseg@number,w
  1758  0F1E  00CF               	movwf	??_print_sevenseg+4
  1759  0F1F  0845               	movf	print_sevenseg@number+1,w
  1760  0F20  00D0               	movwf	??_print_sevenseg+5
  1761  0F21  3000               	movlw	0
  1762  0F22  1BD0               	btfsc	??_print_sevenseg+5,7
  1763  0F23  30FF               	movlw	255
  1764  0F24  00D1               	movwf	??_print_sevenseg+6
  1765  0F25  00D2               	movwf	??_print_sevenseg+7
  1766  0F26  084F               	movf	??_print_sevenseg+4,w
  1767  0F27  07CB               	addwf	??_print_sevenseg,f
  1768  0F28  0850               	movf	??_print_sevenseg+5,w
  1769  0F29  1803               	skipnc
  1770  0F2A  0F50               	incfsz	??_print_sevenseg+5,w
  1771  0F2B  2F2D               	goto	u2570
  1772  0F2C  2F2E               	goto	u2571
  1773  0F2D                     u2570:	
  1774  0F2D  07CC               	addwf	??_print_sevenseg+1,f
  1775  0F2E                     u2571:	
  1776  0F2E  0851               	movf	??_print_sevenseg+6,w
  1777  0F2F  1803               	skipnc
  1778  0F30  0F51               	incfsz	??_print_sevenseg+6,w
  1779  0F31  2F33               	goto	u2572
  1780  0F32  2F34               	goto	u2573
  1781  0F33                     u2572:	
  1782  0F33  07CD               	addwf	??_print_sevenseg+2,f
  1783  0F34                     u2573:	
  1784  0F34  0852               	movf	??_print_sevenseg+7,w
  1785  0F35  1803               	skipnc
  1786  0F36  0A52               	incf	??_print_sevenseg+7,w
  1787  0F37  07CE               	addwf	??_print_sevenseg+3,f
  1788  0F38  084E               	movf	??_print_sevenseg+3,w
  1789  0F39  1D03               	btfss	3,2
  1790  0F3A  2F67               	goto	l1451
  1791  0F3B  084D               	movf	??_print_sevenseg+2,w
  1792  0F3C  1D03               	btfss	3,2
  1793  0F3D  2F67               	goto	l1451
  1794  0F3E  084C               	movf	??_print_sevenseg+1,w
  1795  0F3F  1D03               	btfss	3,2
  1796  0F40  2F67               	goto	l1451
  1797  0F41  300A               	movlw	10
  1798  0F42  024B               	subwf	??_print_sevenseg,w
  1799  0F43  1D03               	skipz
  1800  0F44  2F45               	goto	u2583
  1801  0F45                     u2583:	
  1802  0F45  1803               	btfsc	3,0
  1803  0F46  2F67               	goto	l1451
  1804                           
  1805                           ;7seglibmain.h: 91: {
  1806                           ;7seglibmain.h: 92: SETport[0] = numlib[8];
  1807  0F47  1683               	bsf	3,5	;RP0=1, select bank1
  1808  0F48  1303               	bcf	3,6	;RP1=0, select bank1
  1809  0F49  0841               	movf	((_numlib+1)^(0+128)+32),w
  1810  0F4A  1283               	bcf	3,5	;RP0=0, select bank0
  1811  0F4B  1303               	bcf	3,6	;RP1=0, select bank0
  1812  0F4C  00D8               	movwf	_SETport+1
  1813  0F4D  1683               	bsf	3,5	;RP0=1, select bank1
  1814  0F4E  1303               	bcf	3,6	;RP1=0, select bank1
  1815  0F4F  0840               	movf	(_numlib^(0+128)+32),w
  1816  0F50  1283               	bcf	3,5	;RP0=0, select bank0
  1817  0F51  1303               	bcf	3,6	;RP1=0, select bank0
  1818  0F52  00D7               	movwf	_SETport
  1819                           
  1820                           ;7seglibmain.h: 93: SETport[1] = numlib[number - SETscale[7]];
  1821  0F53  033C               	decf	_SETscale+28,w
  1822  0F54  3AFF               	xorlw	255
  1823  0F55  0744               	addwf	print_sevenseg@number,w
  1824  0F56  00CB               	movwf	??_print_sevenseg
  1825  0F57  3001               	movlw	1
  1826  0F58                     u2595:	
  1827  0F58  1003               	clrc
  1828  0F59  0DCB               	rlf	??_print_sevenseg,f
  1829  0F5A  3EFF               	addlw	-1
  1830  0F5B  1D03               	skipz
  1831  0F5C  2F58               	goto	u2595
  1832  0F5D  1003               	clrc
  1833  0F5E  0D4B               	rlf	??_print_sevenseg,w
  1834  0F5F  3EA0               	addlw	(low (_numlib| 0))& (0+255)
  1835  0F60  0084               	movwf	4
  1836  0F61  1383               	bcf	3,7	;select IRP bank1
  1837  0F62  0800               	movf	0,w
  1838  0F63  00D9               	movwf	_SETport+2
  1839  0F64  0A84               	incf	4,f
  1840  0F65  0800               	movf	0,w
  1841  0F66  00DA               	movwf	_SETport+3
  1842  0F67                     l1451:	
  1843                           
  1844                           ;7seglibmain.h: 94: }
  1845                           ;7seglibmain.h: 96: if(((number - SETscale[8]) >= 0) && ((number - SETscale[8]) <= 9))
  1846  0F67  0940               	comf	_SETscale+32,w
  1847  0F68  00CB               	movwf	??_print_sevenseg
  1848  0F69  0941               	comf	_SETscale+33,w
  1849  0F6A  00CC               	movwf	??_print_sevenseg+1
  1850  0F6B  0942               	comf	_SETscale+34,w
  1851  0F6C  00CD               	movwf	??_print_sevenseg+2
  1852  0F6D  0943               	comf	_SETscale+35,w
  1853  0F6E  00CE               	movwf	??_print_sevenseg+3
  1854  0F6F  0ACB               	incf	??_print_sevenseg,f
  1855  0F70  1903               	skipnz
  1856  0F71  0ACC               	incf	??_print_sevenseg+1,f
  1857  0F72  1903               	skipnz
  1858  0F73  0ACD               	incf	??_print_sevenseg+2,f
  1859  0F74  1903               	skipnz
  1860  0F75  0ACE               	incf	??_print_sevenseg+3,f
  1861  0F76  0844               	movf	print_sevenseg@number,w
  1862  0F77  00CF               	movwf	??_print_sevenseg+4
  1863  0F78  0845               	movf	print_sevenseg@number+1,w
  1864  0F79  00D0               	movwf	??_print_sevenseg+5
  1865  0F7A  3000               	movlw	0
  1866  0F7B  1BD0               	btfsc	??_print_sevenseg+5,7
  1867  0F7C  30FF               	movlw	255
  1868  0F7D  00D1               	movwf	??_print_sevenseg+6
  1869  0F7E  00D2               	movwf	??_print_sevenseg+7
  1870  0F7F  084F               	movf	??_print_sevenseg+4,w
  1871  0F80  07CB               	addwf	??_print_sevenseg,f
  1872  0F81  0850               	movf	??_print_sevenseg+5,w
  1873  0F82  1803               	skipnc
  1874  0F83  0F50               	incfsz	??_print_sevenseg+5,w
  1875  0F84  2F86               	goto	u2600
  1876  0F85  2F87               	goto	u2601
  1877  0F86                     u2600:	
  1878  0F86  07CC               	addwf	??_print_sevenseg+1,f
  1879  0F87                     u2601:	
  1880  0F87  0851               	movf	??_print_sevenseg+6,w
  1881  0F88  1803               	skipnc
  1882  0F89  0F51               	incfsz	??_print_sevenseg+6,w
  1883  0F8A  2F8C               	goto	u2602
  1884  0F8B  2F8D               	goto	u2603
  1885  0F8C                     u2602:	
  1886  0F8C  07CD               	addwf	??_print_sevenseg+2,f
  1887  0F8D                     u2603:	
  1888  0F8D  0852               	movf	??_print_sevenseg+7,w
  1889  0F8E  1803               	skipnc
  1890  0F8F  0A52               	incf	??_print_sevenseg+7,w
  1891  0F90  07CE               	addwf	??_print_sevenseg+3,f
  1892  0F91  084E               	movf	??_print_sevenseg+3,w
  1893  0F92  1D03               	btfss	3,2
  1894  0F93  2FC0               	goto	l1457
  1895  0F94  084D               	movf	??_print_sevenseg+2,w
  1896  0F95  1D03               	btfss	3,2
  1897  0F96  2FC0               	goto	l1457
  1898  0F97  084C               	movf	??_print_sevenseg+1,w
  1899  0F98  1D03               	btfss	3,2
  1900  0F99  2FC0               	goto	l1457
  1901  0F9A  300A               	movlw	10
  1902  0F9B  024B               	subwf	??_print_sevenseg,w
  1903  0F9C  1D03               	skipz
  1904  0F9D  2F9E               	goto	u2613
  1905  0F9E                     u2613:	
  1906  0F9E  1803               	btfsc	3,0
  1907  0F9F  2FC0               	goto	l1457
  1908                           
  1909                           ;7seglibmain.h: 97: {
  1910                           ;7seglibmain.h: 98: SETport[0] = numlib[9];
  1911  0FA0  1683               	bsf	3,5	;RP0=1, select bank1
  1912  0FA1  1303               	bcf	3,6	;RP1=0, select bank1
  1913  0FA2  0845               	movf	((_numlib+1)^(0+128)+36),w
  1914  0FA3  1283               	bcf	3,5	;RP0=0, select bank0
  1915  0FA4  1303               	bcf	3,6	;RP1=0, select bank0
  1916  0FA5  00D8               	movwf	_SETport+1
  1917  0FA6  1683               	bsf	3,5	;RP0=1, select bank1
  1918  0FA7  1303               	bcf	3,6	;RP1=0, select bank1
  1919  0FA8  0844               	movf	(_numlib^(0+128)+36),w
  1920  0FA9  1283               	bcf	3,5	;RP0=0, select bank0
  1921  0FAA  1303               	bcf	3,6	;RP1=0, select bank0
  1922  0FAB  00D7               	movwf	_SETport
  1923                           
  1924                           ;7seglibmain.h: 99: SETport[1] = numlib[number - SETscale[8]];
  1925  0FAC  0340               	decf	_SETscale+32,w
  1926  0FAD  3AFF               	xorlw	255
  1927  0FAE  0744               	addwf	print_sevenseg@number,w
  1928  0FAF  00CB               	movwf	??_print_sevenseg
  1929  0FB0  3001               	movlw	1
  1930  0FB1                     u2625:	
  1931  0FB1  1003               	clrc
  1932  0FB2  0DCB               	rlf	??_print_sevenseg,f
  1933  0FB3  3EFF               	addlw	-1
  1934  0FB4  1D03               	skipz
  1935  0FB5  2FB1               	goto	u2625
  1936  0FB6  1003               	clrc
  1937  0FB7  0D4B               	rlf	??_print_sevenseg,w
  1938  0FB8  3EA0               	addlw	(low (_numlib| 0))& (0+255)
  1939  0FB9  0084               	movwf	4
  1940  0FBA  1383               	bcf	3,7	;select IRP bank1
  1941  0FBB  0800               	movf	0,w
  1942  0FBC  00D9               	movwf	_SETport+2
  1943  0FBD  0A84               	incf	4,f
  1944  0FBE  0800               	movf	0,w
  1945  0FBF  00DA               	movwf	_SETport+3
  1946  0FC0                     l1457:	
  1947                           
  1948                           ;7seglibmain.h: 100: }
  1949                           ;7seglibmain.h: 102: if(port1 == "A")
  1950  0FC0  0849               	movf	print_sevenseg@port1,w
  1951  0FC1  3A01               	xorlw	(low ((STR_1-__stringbase)| (0+32768)))& (0+255)
  1952  0FC2  1D03               	skipz
  1953  0FC3  2FC6               	goto	l53
  1954                           
  1955                           ;7seglibmain.h: 103: PORTA = SETport[0];
  1956  0FC4  0857               	movf	_SETport,w
  1957  0FC5  0085               	movwf	5	;volatile
  1958  0FC6                     l53:	
  1959                           
  1960                           ;7seglibmain.h: 105: if(port1 == "B")
  1961  0FC6  0849               	movf	print_sevenseg@port1,w
  1962  0FC7  3A03               	xorlw	(low ((STR_2-__stringbase)| (0+32768)))& (0+255)
  1963  0FC8  1D03               	skipz
  1964  0FC9  2FCC               	goto	l54
  1965                           
  1966                           ;7seglibmain.h: 106: PORTB = SETport[0];
  1967  0FCA  0857               	movf	_SETport,w
  1968  0FCB  0086               	movwf	6	;volatile
  1969  0FCC                     l54:	
  1970                           
  1971                           ;7seglibmain.h: 108: if(port1 == "C")
  1972  0FCC  0849               	movf	print_sevenseg@port1,w
  1973  0FCD  3A05               	xorlw	(low ((STR_3-__stringbase)| (0+32768)))& (0+255)
  1974  0FCE  1D03               	skipz
  1975  0FCF  2FD2               	goto	l55
  1976                           
  1977                           ;7seglibmain.h: 109: PORTC = SETport[0];
  1978  0FD0  0857               	movf	_SETport,w
  1979  0FD1  0087               	movwf	7	;volatile
  1980  0FD2                     l55:	
  1981                           
  1982                           ;7seglibmain.h: 111: if(port1 == "D")
  1983  0FD2  0849               	movf	print_sevenseg@port1,w
  1984  0FD3  3A07               	xorlw	(low ((STR_4-__stringbase)| (0+32768)))& (0+255)
  1985  0FD4  1D03               	skipz
  1986  0FD5  2FD8               	goto	l56
  1987                           
  1988                           ;7seglibmain.h: 112: PORTD = SETport[0];
  1989  0FD6  0857               	movf	_SETport,w
  1990  0FD7  0088               	movwf	8	;volatile
  1991  0FD8                     l56:	
  1992                           
  1993                           ;7seglibmain.h: 114: if(port1 == "E")
  1994  0FD8  0849               	movf	print_sevenseg@port1,w
  1995  0FD9  3A09               	xorlw	(low ((STR_5-__stringbase)| (0+32768)))& (0+255)
  1996  0FDA  1D03               	skipz
  1997  0FDB  2FDE               	goto	l57
  1998                           
  1999                           ;7seglibmain.h: 115: PORTE = SETport[0];
  2000  0FDC  0857               	movf	_SETport,w
  2001  0FDD  0089               	movwf	9	;volatile
  2002  0FDE                     l57:	
  2003                           
  2004                           ;7seglibmain.h: 117: if(port2 == "A")
  2005  0FDE  084A               	movf	print_sevenseg@port2,w
  2006  0FDF  3A01               	xorlw	(low ((STR_1-__stringbase)| (0+32768)))& (0+255)
  2007  0FE0  1D03               	skipz
  2008  0FE1  2FE4               	goto	l58
  2009                           
  2010                           ;7seglibmain.h: 118: PORTA = SETport[1];
  2011  0FE2  0859               	movf	_SETport+2,w
  2012  0FE3  0085               	movwf	5	;volatile
  2013  0FE4                     l58:	
  2014                           
  2015                           ;7seglibmain.h: 120: if(port2 == "B")
  2016  0FE4  084A               	movf	print_sevenseg@port2,w
  2017  0FE5  3A03               	xorlw	(low ((STR_2-__stringbase)| (0+32768)))& (0+255)
  2018  0FE6  1D03               	skipz
  2019  0FE7  2FEA               	goto	l59
  2020                           
  2021                           ;7seglibmain.h: 121: PORTB = SETport[1];
  2022  0FE8  0859               	movf	_SETport+2,w
  2023  0FE9  0086               	movwf	6	;volatile
  2024  0FEA                     l59:	
  2025                           
  2026                           ;7seglibmain.h: 123: if(port2 == "C")
  2027  0FEA  084A               	movf	print_sevenseg@port2,w
  2028  0FEB  3A05               	xorlw	(low ((STR_3-__stringbase)| (0+32768)))& (0+255)
  2029  0FEC  1D03               	skipz
  2030  0FED  2FF0               	goto	l60
  2031                           
  2032                           ;7seglibmain.h: 124: PORTC = SETport[1];
  2033  0FEE  0859               	movf	_SETport+2,w
  2034  0FEF  0087               	movwf	7	;volatile
  2035  0FF0                     l60:	
  2036                           
  2037                           ;7seglibmain.h: 126: if(port2 == "D")
  2038  0FF0  084A               	movf	print_sevenseg@port2,w
  2039  0FF1  3A07               	xorlw	(low ((STR_4-__stringbase)| (0+32768)))& (0+255)
  2040  0FF2  1D03               	skipz
  2041  0FF3  2FF6               	goto	l61
  2042                           
  2043                           ;7seglibmain.h: 127: PORTD = SETport[1];
  2044  0FF4  0859               	movf	_SETport+2,w
  2045  0FF5  0088               	movwf	8	;volatile
  2046  0FF6                     l61:	
  2047                           
  2048                           ;7seglibmain.h: 129: if(port2 == "E")
  2049  0FF6  084A               	movf	print_sevenseg@port2,w
  2050  0FF7  3A09               	xorlw	(low ((STR_5-__stringbase)| (0+32768)))& (0+255)
  2051  0FF8  1D03               	skipz
  2052  0FF9  0008               	return
  2053                           
  2054                           ;7seglibmain.h: 130: PORTE = SETport[1];
  2055  0FFA  0859               	movf	_SETport+2,w
  2056  0FFB  0089               	movwf	9	;volatile
  2057                           
  2058                           ;7seglibmain.h: 131: }
  2059  0FFC  0008               	return
  2060  0FFD                     L6:	
  2061  0FFD  120A  158A  2BA0   	ljmp	l1479
  2062                           
  2063                           	psect	text1_split_2
  2064  0BA0                     l1479:	
  2065                           
  2066                           ;7seglibmain.h: 132: else
  2067                           ;7seglibmain.h: 133: if(number == (0) && (port1 != (0) && port2 != (0) && compnumb != (0
      +                          )))
  2068  0BA0  1283               	bcf	3,5	;RP0=0, select bank0
  2069  0BA1  1303               	bcf	3,6	;RP1=0, select bank0
  2070  0BA2  0844               	movf	print_sevenseg@number,w
  2071  0BA3  0445               	iorwf	print_sevenseg@number+1,w
  2072  0BA4  1D03               	btfss	3,2
  2073  0BA5  0008               	return
  2074  0BA6  0849               	movf	print_sevenseg@port1,w
  2075  0BA7  1903               	btfsc	3,2
  2076  0BA8  0008               	return
  2077  0BA9  084A               	movf	print_sevenseg@port2,w
  2078  0BAA  1903               	btfsc	3,2
  2079  0BAB  0008               	return
  2080  0BAC  0848               	movf	print_sevenseg@compnumb+2,w
  2081  0BAD  0447               	iorwf	print_sevenseg@compnumb+1,w
  2082  0BAE  0446               	iorwf	print_sevenseg@compnumb,w
  2083  0BAF  1903               	skipnz
  2084  0BB0  0008               	return
  2085                           
  2086                           ;7seglibmain.h: 134: {
  2087                           ;7seglibmain.h: 135: if(compnumb <= 0.9)
  2088  0BB1  3066               	movlw	102
  2089  0BB2  00F0               	movwf	___ftge@ff1
  2090  0BB3  3066               	movlw	102
  2091  0BB4  00F1               	movwf	___ftge@ff1+1
  2092  0BB5  303F               	movlw	63
  2093  0BB6  00F2               	movwf	___ftge@ff1+2
  2094  0BB7  0846               	movf	print_sevenseg@compnumb,w
  2095  0BB8  00F3               	movwf	___ftge@ff2
  2096  0BB9  0847               	movf	print_sevenseg@compnumb+1,w
  2097  0BBA  00F4               	movwf	___ftge@ff2+1
  2098  0BBB  0848               	movf	print_sevenseg@compnumb+2,w
  2099  0BBC  00F5               	movwf	___ftge@ff2+2
  2100  0BBD  120A  118A  200B  120A  158A  	fcall	___ftge
  2101  0BC2  1C03               	btfss	3,0
  2102  0BC3  2C65               	goto	l1531
  2103                           
  2104                           ;7seglibmain.h: 136: {
  2105                           ;7seglibmain.h: 137: if(compnumb == 0.0)
  2106  0BC4  1283               	bcf	3,5	;RP0=0, select bank0
  2107  0BC5  1303               	bcf	3,6	;RP1=0, select bank0
  2108  0BC6  0848               	movf	print_sevenseg@compnumb+2,w
  2109  0BC7  0447               	iorwf	print_sevenseg@compnumb+1,w
  2110  0BC8  0446               	iorwf	print_sevenseg@compnumb,w
  2111  0BC9  1D03               	skipz
  2112  0BCA  2BCD               	goto	l1493
  2113                           
  2114                           ;7seglibmain.h: 138: fdef = 0;
  2115  0BCB  01D9               	clrf	_fdef
  2116  0BCC  01DA               	clrf	_fdef+1
  2117  0BCD                     l1493:	
  2118                           
  2119                           ;7seglibmain.h: 140: if(compnumb == 0.1)
  2120  0BCD  30CD               	movlw	205
  2121  0BCE  0646               	xorwf	print_sevenseg@compnumb,w
  2122  0BCF  30CC               	movlw	204
  2123  0BD0  1903               	skipnz
  2124  0BD1  0647               	xorwf	print_sevenseg@compnumb+1,w
  2125  0BD2  303D               	movlw	61
  2126  0BD3  1903               	skipnz
  2127  0BD4  0648               	xorwf	print_sevenseg@compnumb+2,w
  2128  0BD5  1D03               	btfss	3,2
  2129  0BD6  2BDB               	goto	l1497
  2130                           
  2131                           ;7seglibmain.h: 141: fdef = 1;
  2132  0BD7  3001               	movlw	1
  2133  0BD8  00D9               	movwf	_fdef
  2134  0BD9  3000               	movlw	0
  2135  0BDA  00DA               	movwf	_fdef+1
  2136  0BDB                     l1497:	
  2137                           
  2138                           ;7seglibmain.h: 143: if(compnumb == 0.2)
  2139  0BDB  30CD               	movlw	205
  2140  0BDC  0646               	xorwf	print_sevenseg@compnumb,w
  2141  0BDD  304C               	movlw	76
  2142  0BDE  1903               	skipnz
  2143  0BDF  0647               	xorwf	print_sevenseg@compnumb+1,w
  2144  0BE0  303E               	movlw	62
  2145  0BE1  1903               	skipnz
  2146  0BE2  0648               	xorwf	print_sevenseg@compnumb+2,w
  2147  0BE3  1D03               	btfss	3,2
  2148  0BE4  2BE9               	goto	l1501
  2149                           
  2150                           ;7seglibmain.h: 144: fdef = 2;
  2151  0BE5  3002               	movlw	2
  2152  0BE6  00D9               	movwf	_fdef
  2153  0BE7  3000               	movlw	0
  2154  0BE8  00DA               	movwf	_fdef+1
  2155  0BE9                     l1501:	
  2156                           
  2157                           ;7seglibmain.h: 146: if(compnumb == 0.3)
  2158  0BE9  309A               	movlw	154
  2159  0BEA  0646               	xorwf	print_sevenseg@compnumb,w
  2160  0BEB  3099               	movlw	153
  2161  0BEC  1903               	skipnz
  2162  0BED  0647               	xorwf	print_sevenseg@compnumb+1,w
  2163  0BEE  303E               	movlw	62
  2164  0BEF  1903               	skipnz
  2165  0BF0  0648               	xorwf	print_sevenseg@compnumb+2,w
  2166  0BF1  1D03               	btfss	3,2
  2167  0BF2  2BF7               	goto	l1505
  2168                           
  2169                           ;7seglibmain.h: 147: fdef = 3;
  2170  0BF3  3003               	movlw	3
  2171  0BF4  00D9               	movwf	_fdef
  2172  0BF5  3000               	movlw	0
  2173  0BF6  00DA               	movwf	_fdef+1
  2174  0BF7                     l1505:	
  2175                           
  2176                           ;7seglibmain.h: 149: if(compnumb == 0.4)
  2177  0BF7  30CD               	movlw	205
  2178  0BF8  0646               	xorwf	print_sevenseg@compnumb,w
  2179  0BF9  30CC               	movlw	204
  2180  0BFA  1903               	skipnz
  2181  0BFB  0647               	xorwf	print_sevenseg@compnumb+1,w
  2182  0BFC  303E               	movlw	62
  2183  0BFD  1903               	skipnz
  2184  0BFE  0648               	xorwf	print_sevenseg@compnumb+2,w
  2185  0BFF  1D03               	btfss	3,2
  2186  0C00  2C05               	goto	l1509
  2187                           
  2188                           ;7seglibmain.h: 150: fdef = 4;
  2189  0C01  3004               	movlw	4
  2190  0C02  00D9               	movwf	_fdef
  2191  0C03  3000               	movlw	0
  2192  0C04  00DA               	movwf	_fdef+1
  2193  0C05                     l1509:	
  2194                           
  2195                           ;7seglibmain.h: 152: if(compnumb == 0.5)
  2196  0C05  303F               	movlw	63
  2197  0C06  0648               	xorwf	print_sevenseg@compnumb+2,w
  2198  0C07  0446               	iorwf	print_sevenseg@compnumb,w
  2199  0C08  0447               	iorwf	print_sevenseg@compnumb+1,w
  2200  0C09  1D03               	btfss	3,2
  2201  0C0A  2C0F               	goto	l1513
  2202                           
  2203                           ;7seglibmain.h: 153: fdef = 5;
  2204  0C0B  3005               	movlw	5
  2205  0C0C  00D9               	movwf	_fdef
  2206  0C0D  3000               	movlw	0
  2207  0C0E  00DA               	movwf	_fdef+1
  2208  0C0F                     l1513:	
  2209                           
  2210                           ;7seglibmain.h: 155: if(compnumb == 0.6)
  2211  0C0F  309A               	movlw	154
  2212  0C10  0646               	xorwf	print_sevenseg@compnumb,w
  2213  0C11  3019               	movlw	25
  2214  0C12  1903               	skipnz
  2215  0C13  0647               	xorwf	print_sevenseg@compnumb+1,w
  2216  0C14  303F               	movlw	63
  2217  0C15  1903               	skipnz
  2218  0C16  0648               	xorwf	print_sevenseg@compnumb+2,w
  2219  0C17  1D03               	btfss	3,2
  2220  0C18  2C1D               	goto	l1517
  2221                           
  2222                           ;7seglibmain.h: 156: fdef = 6;
  2223  0C19  3006               	movlw	6
  2224  0C1A  00D9               	movwf	_fdef
  2225  0C1B  3000               	movlw	0
  2226  0C1C  00DA               	movwf	_fdef+1
  2227  0C1D                     l1517:	
  2228                           
  2229                           ;7seglibmain.h: 158: if(compnumb == 0.7)
  2230  0C1D  3033               	movlw	51
  2231  0C1E  0646               	xorwf	print_sevenseg@compnumb,w
  2232  0C1F  3033               	movlw	51
  2233  0C20  1903               	skipnz
  2234  0C21  0647               	xorwf	print_sevenseg@compnumb+1,w
  2235  0C22  303F               	movlw	63
  2236  0C23  1903               	skipnz
  2237  0C24  0648               	xorwf	print_sevenseg@compnumb+2,w
  2238  0C25  1D03               	btfss	3,2
  2239  0C26  2C2B               	goto	l1521
  2240                           
  2241                           ;7seglibmain.h: 159: fdef = 7;
  2242  0C27  3007               	movlw	7
  2243  0C28  00D9               	movwf	_fdef
  2244  0C29  3000               	movlw	0
  2245  0C2A  00DA               	movwf	_fdef+1
  2246  0C2B                     l1521:	
  2247                           
  2248                           ;7seglibmain.h: 161: if(compnumb == 0.8)
  2249  0C2B  30CD               	movlw	205
  2250  0C2C  0646               	xorwf	print_sevenseg@compnumb,w
  2251  0C2D  304C               	movlw	76
  2252  0C2E  1903               	skipnz
  2253  0C2F  0647               	xorwf	print_sevenseg@compnumb+1,w
  2254  0C30  303F               	movlw	63
  2255  0C31  1903               	skipnz
  2256  0C32  0648               	xorwf	print_sevenseg@compnumb+2,w
  2257  0C33  1D03               	btfss	3,2
  2258  0C34  2C39               	goto	l1525
  2259                           
  2260                           ;7seglibmain.h: 162: fdef = 8;
  2261  0C35  3008               	movlw	8
  2262  0C36  00D9               	movwf	_fdef
  2263  0C37  3000               	movlw	0
  2264  0C38  00DA               	movwf	_fdef+1
  2265  0C39                     l1525:	
  2266                           
  2267                           ;7seglibmain.h: 164: if(compnumb == 0.9)
  2268  0C39  3066               	movlw	102
  2269  0C3A  0646               	xorwf	print_sevenseg@compnumb,w
  2270  0C3B  3066               	movlw	102
  2271  0C3C  1903               	skipnz
  2272  0C3D  0647               	xorwf	print_sevenseg@compnumb+1,w
  2273  0C3E  303F               	movlw	63
  2274  0C3F  1903               	skipnz
  2275  0C40  0648               	xorwf	print_sevenseg@compnumb+2,w
  2276  0C41  1D03               	btfss	3,2
  2277  0C42  2C47               	goto	l75
  2278                           
  2279                           ;7seglibmain.h: 165: fdef = 9;
  2280  0C43  3009               	movlw	9
  2281  0C44  00D9               	movwf	_fdef
  2282  0C45  3000               	movlw	0
  2283  0C46  00DA               	movwf	_fdef+1
  2284  0C47                     l75:	
  2285                           
  2286                           ;7seglibmain.h: 167: SETport[0] = numlib[10];
  2287  0C47  1683               	bsf	3,5	;RP0=1, select bank1
  2288  0C48  1303               	bcf	3,6	;RP1=0, select bank1
  2289  0C49  0849               	movf	((_numlib+1)^(0+128)+40),w
  2290  0C4A  1283               	bcf	3,5	;RP0=0, select bank0
  2291  0C4B  1303               	bcf	3,6	;RP1=0, select bank0
  2292  0C4C  00D8               	movwf	_SETport+1
  2293  0C4D  1683               	bsf	3,5	;RP0=1, select bank1
  2294  0C4E  1303               	bcf	3,6	;RP1=0, select bank1
  2295  0C4F  0848               	movf	(_numlib^(0+128)+40),w
  2296  0C50  1283               	bcf	3,5	;RP0=0, select bank0
  2297  0C51  1303               	bcf	3,6	;RP1=0, select bank0
  2298  0C52  00D7               	movwf	_SETport
  2299                           
  2300                           ;7seglibmain.h: 168: SETport[1] = numlib[fdef];
  2301  0C53  0859               	movf	_fdef,w
  2302  0C54  00CB               	movwf	??_print_sevenseg
  2303  0C55  3001               	movlw	1
  2304  0C56                     u2885:	
  2305  0C56  1003               	clrc
  2306  0C57  0DCB               	rlf	??_print_sevenseg,f
  2307  0C58  3EFF               	addlw	-1
  2308  0C59  1D03               	skipz
  2309  0C5A  2C56               	goto	u2885
  2310  0C5B  1003               	clrc
  2311  0C5C  0D4B               	rlf	??_print_sevenseg,w
  2312  0C5D  3EA0               	addlw	(low (_numlib| 0))& (0+255)
  2313  0C5E  0084               	movwf	4
  2314  0C5F  1383               	bcf	3,7	;select IRP bank1
  2315  0C60  0800               	movf	0,w
  2316  0C61  00D9               	movwf	_SETport+2
  2317  0C62  0A84               	incf	4,f
  2318  0C63  0800               	movf	0,w
  2319  0C64  00DA               	movwf	_SETport+3
  2320  0C65                     l1531:	
  2321                           
  2322                           ;7seglibmain.h: 169: }
  2323                           ;7seglibmain.h: 171: if((compnumb <= 1.9) && (compnumb > 0.9))
  2324  0C65  3033               	movlw	51
  2325  0C66  00F0               	movwf	___ftge@ff1
  2326  0C67  30F3               	movlw	243
  2327  0C68  00F1               	movwf	___ftge@ff1+1
  2328  0C69  303F               	movlw	63
  2329  0C6A  00F2               	movwf	___ftge@ff1+2
  2330  0C6B  1283               	bcf	3,5	;RP0=0, select bank0
  2331  0C6C  1303               	bcf	3,6	;RP1=0, select bank0
  2332  0C6D  0846               	movf	print_sevenseg@compnumb,w
  2333  0C6E  00F3               	movwf	___ftge@ff2
  2334  0C6F  0847               	movf	print_sevenseg@compnumb+1,w
  2335  0C70  00F4               	movwf	___ftge@ff2+1
  2336  0C71  0848               	movf	print_sevenseg@compnumb+2,w
  2337  0C72  00F5               	movwf	___ftge@ff2+2
  2338  0C73  120A  118A  200B  120A  158A  	fcall	___ftge
  2339  0C78  1C03               	btfss	3,0
  2340  0C79  2C7A               	ljmp	L9
  2341  0C7A                     L9:	
  2342  0C7A  120A  118A  2868   	ljmp	L7
  2343                           
  2344                           	psect	text1_split_3
  2345  0068                     L7:	
  2346  0068  2924               	goto	l1577
  2347  0069  3066               	movlw	102
  2348  006A  00F0               	movwf	___ftge@ff1
  2349  006B  3066               	movlw	102
  2350  006C  00F1               	movwf	___ftge@ff1+1
  2351  006D  303F               	movlw	63
  2352  006E  00F2               	movwf	___ftge@ff1+2
  2353  006F  1283               	bcf	3,5	;RP0=0, select bank0
  2354  0070  1303               	bcf	3,6	;RP1=0, select bank0
  2355  0071  0846               	movf	print_sevenseg@compnumb,w
  2356  0072  00F3               	movwf	___ftge@ff2
  2357  0073  0847               	movf	print_sevenseg@compnumb+1,w
  2358  0074  00F4               	movwf	___ftge@ff2+1
  2359  0075  0848               	movf	print_sevenseg@compnumb+2,w
  2360  0076  00F5               	movwf	___ftge@ff2+2
  2361  0077  120A  118A  200B  120A  118A  	fcall	___ftge
  2362  007C  1803               	btfsc	3,0
  2363  007D  2924               	goto	l1577
  2364                           
  2365                           ;7seglibmain.h: 172: {
  2366                           ;7seglibmain.h: 173: if(compnumb == 1.0)
  2367  007E  3080               	movlw	128
  2368  007F  1283               	bcf	3,5	;RP0=0, select bank0
  2369  0080  1303               	bcf	3,6	;RP1=0, select bank0
  2370  0081  0647               	xorwf	print_sevenseg@compnumb+1,w
  2371  0082  303F               	movlw	63
  2372  0083  1903               	skipnz
  2373  0084  0648               	xorwf	print_sevenseg@compnumb+2,w
  2374  0085  0446               	iorwf	print_sevenseg@compnumb,w
  2375  0086  1D03               	btfss	3,2
  2376  0087  288A               	goto	l1539
  2377                           
  2378                           ;7seglibmain.h: 174: fdef = 0;
  2379  0088  01D9               	clrf	_fdef
  2380  0089  01DA               	clrf	_fdef+1
  2381  008A                     l1539:	
  2382                           
  2383                           ;7seglibmain.h: 176: if(compnumb == 1.1)
  2384  008A  30CD               	movlw	205
  2385  008B  0646               	xorwf	print_sevenseg@compnumb,w
  2386  008C  308C               	movlw	140
  2387  008D  1903               	skipnz
  2388  008E  0647               	xorwf	print_sevenseg@compnumb+1,w
  2389  008F  303F               	movlw	63
  2390  0090  1903               	skipnz
  2391  0091  0648               	xorwf	print_sevenseg@compnumb+2,w
  2392  0092  1D03               	btfss	3,2
  2393  0093  2898               	goto	l1543
  2394                           
  2395                           ;7seglibmain.h: 177: fdef = 1;
  2396  0094  3001               	movlw	1
  2397  0095  00D9               	movwf	_fdef
  2398  0096  3000               	movlw	0
  2399  0097  00DA               	movwf	_fdef+1
  2400  0098                     l1543:	
  2401                           
  2402                           ;7seglibmain.h: 179: if(compnumb == 1.2)
  2403  0098  309A               	movlw	154
  2404  0099  0646               	xorwf	print_sevenseg@compnumb,w
  2405  009A  3099               	movlw	153
  2406  009B  1903               	skipnz
  2407  009C  0647               	xorwf	print_sevenseg@compnumb+1,w
  2408  009D  303F               	movlw	63
  2409  009E  1903               	skipnz
  2410  009F  0648               	xorwf	print_sevenseg@compnumb+2,w
  2411  00A0  1D03               	btfss	3,2
  2412  00A1  28A6               	goto	l1547
  2413                           
  2414                           ;7seglibmain.h: 180: fdef = 2;
  2415  00A2  3002               	movlw	2
  2416  00A3  00D9               	movwf	_fdef
  2417  00A4  3000               	movlw	0
  2418  00A5  00DA               	movwf	_fdef+1
  2419  00A6                     l1547:	
  2420                           
  2421                           ;7seglibmain.h: 182: if(compnumb == 1.3)
  2422  00A6  3066               	movlw	102
  2423  00A7  0646               	xorwf	print_sevenseg@compnumb,w
  2424  00A8  30A6               	movlw	166
  2425  00A9  1903               	skipnz
  2426  00AA  0647               	xorwf	print_sevenseg@compnumb+1,w
  2427  00AB  303F               	movlw	63
  2428  00AC  1903               	skipnz
  2429  00AD  0648               	xorwf	print_sevenseg@compnumb+2,w
  2430  00AE  1D03               	btfss	3,2
  2431  00AF  28B4               	goto	l1551
  2432                           
  2433                           ;7seglibmain.h: 183: fdef = 3;
  2434  00B0  3003               	movlw	3
  2435  00B1  00D9               	movwf	_fdef
  2436  00B2  3000               	movlw	0
  2437  00B3  00DA               	movwf	_fdef+1
  2438  00B4                     l1551:	
  2439                           
  2440                           ;7seglibmain.h: 185: if(compnumb == 1.4)
  2441  00B4  3033               	movlw	51
  2442  00B5  0646               	xorwf	print_sevenseg@compnumb,w
  2443  00B6  30B3               	movlw	179
  2444  00B7  1903               	skipnz
  2445  00B8  0647               	xorwf	print_sevenseg@compnumb+1,w
  2446  00B9  303F               	movlw	63
  2447  00BA  1903               	skipnz
  2448  00BB  0648               	xorwf	print_sevenseg@compnumb+2,w
  2449  00BC  1D03               	btfss	3,2
  2450  00BD  28C2               	goto	l1555
  2451                           
  2452                           ;7seglibmain.h: 186: fdef = 4;
  2453  00BE  3004               	movlw	4
  2454  00BF  00D9               	movwf	_fdef
  2455  00C0  3000               	movlw	0
  2456  00C1  00DA               	movwf	_fdef+1
  2457  00C2                     l1555:	
  2458                           
  2459                           ;7seglibmain.h: 188: if(compnumb == 1.5)
  2460  00C2  30C0               	movlw	192
  2461  00C3  0647               	xorwf	print_sevenseg@compnumb+1,w
  2462  00C4  303F               	movlw	63
  2463  00C5  1903               	skipnz
  2464  00C6  0648               	xorwf	print_sevenseg@compnumb+2,w
  2465  00C7  0446               	iorwf	print_sevenseg@compnumb,w
  2466  00C8  1D03               	btfss	3,2
  2467  00C9  28CE               	goto	l1559
  2468                           
  2469                           ;7seglibmain.h: 189: fdef = 5;
  2470  00CA  3005               	movlw	5
  2471  00CB  00D9               	movwf	_fdef
  2472  00CC  3000               	movlw	0
  2473  00CD  00DA               	movwf	_fdef+1
  2474  00CE                     l1559:	
  2475                           
  2476                           ;7seglibmain.h: 191: if(compnumb == 1.6)
  2477  00CE  30CD               	movlw	205
  2478  00CF  0646               	xorwf	print_sevenseg@compnumb,w
  2479  00D0  30CC               	movlw	204
  2480  00D1  1903               	skipnz
  2481  00D2  0647               	xorwf	print_sevenseg@compnumb+1,w
  2482  00D3  303F               	movlw	63
  2483  00D4  1903               	skipnz
  2484  00D5  0648               	xorwf	print_sevenseg@compnumb+2,w
  2485  00D6  1D03               	btfss	3,2
  2486  00D7  28DC               	goto	l1563
  2487                           
  2488                           ;7seglibmain.h: 192: fdef = 6;
  2489  00D8  3006               	movlw	6
  2490  00D9  00D9               	movwf	_fdef
  2491  00DA  3000               	movlw	0
  2492  00DB  00DA               	movwf	_fdef+1
  2493  00DC                     l1563:	
  2494                           
  2495                           ;7seglibmain.h: 194: if(compnumb == 1.7)
  2496  00DC  309A               	movlw	154
  2497  00DD  0646               	xorwf	print_sevenseg@compnumb,w
  2498  00DE  30D9               	movlw	217
  2499  00DF  1903               	skipnz
  2500  00E0  0647               	xorwf	print_sevenseg@compnumb+1,w
  2501  00E1  303F               	movlw	63
  2502  00E2  1903               	skipnz
  2503  00E3  0648               	xorwf	print_sevenseg@compnumb+2,w
  2504  00E4  1D03               	btfss	3,2
  2505  00E5  28EA               	goto	l1567
  2506                           
  2507                           ;7seglibmain.h: 195: fdef = 7;
  2508  00E6  3007               	movlw	7
  2509  00E7  00D9               	movwf	_fdef
  2510  00E8  3000               	movlw	0
  2511  00E9  00DA               	movwf	_fdef+1
  2512  00EA                     l1567:	
  2513                           
  2514                           ;7seglibmain.h: 197: if(compnumb == 1.8)
  2515  00EA  3066               	movlw	102
  2516  00EB  0646               	xorwf	print_sevenseg@compnumb,w
  2517  00EC  30E6               	movlw	230
  2518  00ED  1903               	skipnz
  2519  00EE  0647               	xorwf	print_sevenseg@compnumb+1,w
  2520  00EF  303F               	movlw	63
  2521  00F0  1903               	skipnz
  2522  00F1  0648               	xorwf	print_sevenseg@compnumb+2,w
  2523  00F2  1D03               	btfss	3,2
  2524  00F3  28F8               	goto	l1571
  2525                           
  2526                           ;7seglibmain.h: 198: fdef = 8;
  2527  00F4  3008               	movlw	8
  2528  00F5  00D9               	movwf	_fdef
  2529  00F6  3000               	movlw	0
  2530  00F7  00DA               	movwf	_fdef+1
  2531  00F8                     l1571:	
  2532                           
  2533                           ;7seglibmain.h: 200: if(compnumb == 1.9)
  2534  00F8  3033               	movlw	51
  2535  00F9  0646               	xorwf	print_sevenseg@compnumb,w
  2536  00FA  30F3               	movlw	243
  2537  00FB  1903               	skipnz
  2538  00FC  0647               	xorwf	print_sevenseg@compnumb+1,w
  2539  00FD  303F               	movlw	63
  2540  00FE  1903               	skipnz
  2541  00FF  0648               	xorwf	print_sevenseg@compnumb+2,w
  2542  0100  1D03               	btfss	3,2
  2543  0101  2906               	goto	l86
  2544                           
  2545                           ;7seglibmain.h: 201: fdef = 9;
  2546  0102  3009               	movlw	9
  2547  0103  00D9               	movwf	_fdef
  2548  0104  3000               	movlw	0
  2549  0105  00DA               	movwf	_fdef+1
  2550  0106                     l86:	
  2551                           
  2552                           ;7seglibmain.h: 203: SETport[0] = numlib[11];
  2553  0106  1683               	bsf	3,5	;RP0=1, select bank1
  2554  0107  1303               	bcf	3,6	;RP1=0, select bank1
  2555  0108  084D               	movf	((_numlib+1)^(0+128)+44),w
  2556  0109  1283               	bcf	3,5	;RP0=0, select bank0
  2557  010A  1303               	bcf	3,6	;RP1=0, select bank0
  2558  010B  00D8               	movwf	_SETport+1
  2559  010C  1683               	bsf	3,5	;RP0=1, select bank1
  2560  010D  1303               	bcf	3,6	;RP1=0, select bank1
  2561  010E  084C               	movf	(_numlib^(0+128)+44),w
  2562  010F  1283               	bcf	3,5	;RP0=0, select bank0
  2563  0110  1303               	bcf	3,6	;RP1=0, select bank0
  2564  0111  00D7               	movwf	_SETport
  2565                           
  2566                           ;7seglibmain.h: 204: SETport[1] = numlib[fdef];
  2567  0112  0859               	movf	_fdef,w
  2568  0113  00CB               	movwf	??_print_sevenseg
  2569  0114  3001               	movlw	1
  2570  0115                     u3015:	
  2571  0115  1003               	clrc
  2572  0116  0DCB               	rlf	??_print_sevenseg,f
  2573  0117  3EFF               	addlw	-1
  2574  0118  1D03               	skipz
  2575  0119  2915               	goto	u3015
  2576  011A  1003               	clrc
  2577  011B  0D4B               	rlf	??_print_sevenseg,w
  2578  011C  3EA0               	addlw	(low (_numlib| 0))& (0+255)
  2579  011D  0084               	movwf	4
  2580  011E  1383               	bcf	3,7	;select IRP bank1
  2581  011F  0800               	movf	0,w
  2582  0120  00D9               	movwf	_SETport+2
  2583  0121  0A84               	incf	4,f
  2584  0122  0800               	movf	0,w
  2585  0123  00DA               	movwf	_SETport+3
  2586  0124                     l1577:	
  2587                           
  2588                           ;7seglibmain.h: 205: }
  2589                           ;7seglibmain.h: 207: if((compnumb <= 2.9) && (compnumb > 1.9))
  2590  0124  309A               	movlw	154
  2591  0125  00F0               	movwf	___ftge@ff1
  2592  0126  3039               	movlw	57
  2593  0127  00F1               	movwf	___ftge@ff1+1
  2594  0128  3040               	movlw	64
  2595  0129  00F2               	movwf	___ftge@ff1+2
  2596  012A  1283               	bcf	3,5	;RP0=0, select bank0
  2597  012B  1303               	bcf	3,6	;RP1=0, select bank0
  2598  012C  0846               	movf	print_sevenseg@compnumb,w
  2599  012D  00F3               	movwf	___ftge@ff2
  2600  012E  0847               	movf	print_sevenseg@compnumb+1,w
  2601  012F  00F4               	movwf	___ftge@ff2+1
  2602  0130  0848               	movf	print_sevenseg@compnumb+2,w
  2603  0131  00F5               	movwf	___ftge@ff2+2
  2604  0132  120A  118A  200B  120A  118A  	fcall	___ftge
  2605  0137  1C03               	btfss	3,0
  2606  0138  29F2               	goto	l1623
  2607  0139  3033               	movlw	51
  2608  013A  00F0               	movwf	___ftge@ff1
  2609  013B  30F3               	movlw	243
  2610  013C  00F1               	movwf	___ftge@ff1+1
  2611  013D  303F               	movlw	63
  2612  013E  00F2               	movwf	___ftge@ff1+2
  2613  013F  1283               	bcf	3,5	;RP0=0, select bank0
  2614  0140  1303               	bcf	3,6	;RP1=0, select bank0
  2615  0141  0846               	movf	print_sevenseg@compnumb,w
  2616  0142  00F3               	movwf	___ftge@ff2
  2617  0143  0847               	movf	print_sevenseg@compnumb+1,w
  2618  0144  00F4               	movwf	___ftge@ff2+1
  2619  0145  0848               	movf	print_sevenseg@compnumb+2,w
  2620  0146  00F5               	movwf	___ftge@ff2+2
  2621  0147  120A  118A  200B  120A  118A  	fcall	___ftge
  2622  014C  1803               	btfsc	3,0
  2623  014D  29F2               	goto	l1623
  2624                           
  2625                           ;7seglibmain.h: 208: {
  2626                           ;7seglibmain.h: 209: if(compnumb == 2.0)
  2627  014E  3040               	movlw	64
  2628  014F  1283               	bcf	3,5	;RP0=0, select bank0
  2629  0150  1303               	bcf	3,6	;RP1=0, select bank0
  2630  0151  0648               	xorwf	print_sevenseg@compnumb+2,w
  2631  0152  0446               	iorwf	print_sevenseg@compnumb,w
  2632  0153  0447               	iorwf	print_sevenseg@compnumb+1,w
  2633  0154  1D03               	btfss	3,2
  2634  0155  2958               	goto	l1585
  2635                           
  2636                           ;7seglibmain.h: 210: fdef = 0;
  2637  0156  01D9               	clrf	_fdef
  2638  0157  01DA               	clrf	_fdef+1
  2639  0158                     l1585:	
  2640                           
  2641                           ;7seglibmain.h: 212: if(compnumb == 2.1)
  2642  0158  3066               	movlw	102
  2643  0159  0646               	xorwf	print_sevenseg@compnumb,w
  2644  015A  3006               	movlw	6
  2645  015B  1903               	skipnz
  2646  015C  0647               	xorwf	print_sevenseg@compnumb+1,w
  2647  015D  3040               	movlw	64
  2648  015E  1903               	skipnz
  2649  015F  0648               	xorwf	print_sevenseg@compnumb+2,w
  2650  0160  1D03               	btfss	3,2
  2651  0161  2966               	goto	l1589
  2652                           
  2653                           ;7seglibmain.h: 213: fdef = 1;
  2654  0162  3001               	movlw	1
  2655  0163  00D9               	movwf	_fdef
  2656  0164  3000               	movlw	0
  2657  0165  00DA               	movwf	_fdef+1
  2658  0166                     l1589:	
  2659                           
  2660                           ;7seglibmain.h: 215: if(compnumb == 2.2)
  2661  0166  30CD               	movlw	205
  2662  0167  0646               	xorwf	print_sevenseg@compnumb,w
  2663  0168  300C               	movlw	12
  2664  0169  1903               	skipnz
  2665  016A  0647               	xorwf	print_sevenseg@compnumb+1,w
  2666  016B  3040               	movlw	64
  2667  016C  1903               	skipnz
  2668  016D  0648               	xorwf	print_sevenseg@compnumb+2,w
  2669  016E  1D03               	btfss	3,2
  2670  016F  2974               	goto	l1593
  2671                           
  2672                           ;7seglibmain.h: 216: fdef = 2;
  2673  0170  3002               	movlw	2
  2674  0171  00D9               	movwf	_fdef
  2675  0172  3000               	movlw	0
  2676  0173  00DA               	movwf	_fdef+1
  2677  0174                     l1593:	
  2678                           
  2679                           ;7seglibmain.h: 218: if(compnumb == 2.3)
  2680  0174  3033               	movlw	51
  2681  0175  0646               	xorwf	print_sevenseg@compnumb,w
  2682  0176  3013               	movlw	19
  2683  0177  1903               	skipnz
  2684  0178  0647               	xorwf	print_sevenseg@compnumb+1,w
  2685  0179  3040               	movlw	64
  2686  017A  1903               	skipnz
  2687  017B  0648               	xorwf	print_sevenseg@compnumb+2,w
  2688  017C  1D03               	btfss	3,2
  2689  017D  2982               	goto	l1597
  2690                           
  2691                           ;7seglibmain.h: 219: fdef = 3;
  2692  017E  3003               	movlw	3
  2693  017F  00D9               	movwf	_fdef
  2694  0180  3000               	movlw	0
  2695  0181  00DA               	movwf	_fdef+1
  2696  0182                     l1597:	
  2697                           
  2698                           ;7seglibmain.h: 221: if(compnumb == 2.4)
  2699  0182  309A               	movlw	154
  2700  0183  0646               	xorwf	print_sevenseg@compnumb,w
  2701  0184  3019               	movlw	25
  2702  0185  1903               	skipnz
  2703  0186  0647               	xorwf	print_sevenseg@compnumb+1,w
  2704  0187  3040               	movlw	64
  2705  0188  1903               	skipnz
  2706  0189  0648               	xorwf	print_sevenseg@compnumb+2,w
  2707  018A  1D03               	btfss	3,2
  2708  018B  2990               	goto	l1601
  2709                           
  2710                           ;7seglibmain.h: 222: fdef = 4;
  2711  018C  3004               	movlw	4
  2712  018D  00D9               	movwf	_fdef
  2713  018E  3000               	movlw	0
  2714  018F  00DA               	movwf	_fdef+1
  2715  0190                     l1601:	
  2716                           
  2717                           ;7seglibmain.h: 224: if(compnumb == 2.5)
  2718  0190  3020               	movlw	32
  2719  0191  0647               	xorwf	print_sevenseg@compnumb+1,w
  2720  0192  3040               	movlw	64
  2721  0193  1903               	skipnz
  2722  0194  0648               	xorwf	print_sevenseg@compnumb+2,w
  2723  0195  0446               	iorwf	print_sevenseg@compnumb,w
  2724  0196  1D03               	btfss	3,2
  2725  0197  299C               	goto	l1605
  2726                           
  2727                           ;7seglibmain.h: 225: fdef = 5;
  2728  0198  3005               	movlw	5
  2729  0199  00D9               	movwf	_fdef
  2730  019A  3000               	movlw	0
  2731  019B  00DA               	movwf	_fdef+1
  2732  019C                     l1605:	
  2733                           
  2734                           ;7seglibmain.h: 227: if(compnumb == 2.6)
  2735  019C  3066               	movlw	102
  2736  019D  0646               	xorwf	print_sevenseg@compnumb,w
  2737  019E  3026               	movlw	38
  2738  019F  1903               	skipnz
  2739  01A0  0647               	xorwf	print_sevenseg@compnumb+1,w
  2740  01A1  3040               	movlw	64
  2741  01A2  1903               	skipnz
  2742  01A3  0648               	xorwf	print_sevenseg@compnumb+2,w
  2743  01A4  1D03               	btfss	3,2
  2744  01A5  29AA               	goto	l1609
  2745                           
  2746                           ;7seglibmain.h: 228: fdef = 6;
  2747  01A6  3006               	movlw	6
  2748  01A7  00D9               	movwf	_fdef
  2749  01A8  3000               	movlw	0
  2750  01A9  00DA               	movwf	_fdef+1
  2751  01AA                     l1609:	
  2752                           
  2753                           ;7seglibmain.h: 230: if(compnumb == 2.7)
  2754  01AA  30CD               	movlw	205
  2755  01AB  0646               	xorwf	print_sevenseg@compnumb,w
  2756  01AC  302C               	movlw	44
  2757  01AD  1903               	skipnz
  2758  01AE  0647               	xorwf	print_sevenseg@compnumb+1,w
  2759  01AF  3040               	movlw	64
  2760  01B0  1903               	skipnz
  2761  01B1  0648               	xorwf	print_sevenseg@compnumb+2,w
  2762  01B2  1D03               	btfss	3,2
  2763  01B3  29B8               	goto	l1613
  2764                           
  2765                           ;7seglibmain.h: 231: fdef = 7;
  2766  01B4  3007               	movlw	7
  2767  01B5  00D9               	movwf	_fdef
  2768  01B6  3000               	movlw	0
  2769  01B7  00DA               	movwf	_fdef+1
  2770  01B8                     l1613:	
  2771                           
  2772                           ;7seglibmain.h: 233: if(compnumb == 2.8)
  2773  01B8  3033               	movlw	51
  2774  01B9  0646               	xorwf	print_sevenseg@compnumb,w
  2775  01BA  3033               	movlw	51
  2776  01BB  1903               	skipnz
  2777  01BC  0647               	xorwf	print_sevenseg@compnumb+1,w
  2778  01BD  3040               	movlw	64
  2779  01BE  1903               	skipnz
  2780  01BF  0648               	xorwf	print_sevenseg@compnumb+2,w
  2781  01C0  1D03               	btfss	3,2
  2782  01C1  29C6               	goto	l1617
  2783                           
  2784                           ;7seglibmain.h: 234: fdef = 8;
  2785  01C2  3008               	movlw	8
  2786  01C3  00D9               	movwf	_fdef
  2787  01C4  3000               	movlw	0
  2788  01C5  00DA               	movwf	_fdef+1
  2789  01C6                     l1617:	
  2790                           
  2791                           ;7seglibmain.h: 236: if(compnumb == 2.9)
  2792  01C6  309A               	movlw	154
  2793  01C7  0646               	xorwf	print_sevenseg@compnumb,w
  2794  01C8  3039               	movlw	57
  2795  01C9  1903               	skipnz
  2796  01CA  0647               	xorwf	print_sevenseg@compnumb+1,w
  2797  01CB  3040               	movlw	64
  2798  01CC  1903               	skipnz
  2799  01CD  0648               	xorwf	print_sevenseg@compnumb+2,w
  2800  01CE  1D03               	btfss	3,2
  2801  01CF  29D4               	goto	l97
  2802                           
  2803                           ;7seglibmain.h: 237: fdef = 9;
  2804  01D0  3009               	movlw	9
  2805  01D1  00D9               	movwf	_fdef
  2806  01D2  3000               	movlw	0
  2807  01D3  00DA               	movwf	_fdef+1
  2808  01D4                     l97:	
  2809                           
  2810                           ;7seglibmain.h: 239: SETport[0] = numlib[12];
  2811  01D4  1683               	bsf	3,5	;RP0=1, select bank1
  2812  01D5  1303               	bcf	3,6	;RP1=0, select bank1
  2813  01D6  0851               	movf	((_numlib+1)^(0+128)+48),w
  2814  01D7  1283               	bcf	3,5	;RP0=0, select bank0
  2815  01D8  1303               	bcf	3,6	;RP1=0, select bank0
  2816  01D9  00D8               	movwf	_SETport+1
  2817  01DA  1683               	bsf	3,5	;RP0=1, select bank1
  2818  01DB  1303               	bcf	3,6	;RP1=0, select bank1
  2819  01DC  0850               	movf	(_numlib^(0+128)+48),w
  2820  01DD  1283               	bcf	3,5	;RP0=0, select bank0
  2821  01DE  1303               	bcf	3,6	;RP1=0, select bank0
  2822  01DF  00D7               	movwf	_SETport
  2823                           
  2824                           ;7seglibmain.h: 240: SETport[1] = numlib[fdef];
  2825  01E0  0859               	movf	_fdef,w
  2826  01E1  00CB               	movwf	??_print_sevenseg
  2827  01E2  3001               	movlw	1
  2828  01E3                     u3145:	
  2829  01E3  1003               	clrc
  2830  01E4  0DCB               	rlf	??_print_sevenseg,f
  2831  01E5  3EFF               	addlw	-1
  2832  01E6  1D03               	skipz
  2833  01E7  29E3               	goto	u3145
  2834  01E8  1003               	clrc
  2835  01E9  0D4B               	rlf	??_print_sevenseg,w
  2836  01EA  3EA0               	addlw	(low (_numlib| 0))& (0+255)
  2837  01EB  0084               	movwf	4
  2838  01EC  1383               	bcf	3,7	;select IRP bank1
  2839  01ED  0800               	movf	0,w
  2840  01EE  00D9               	movwf	_SETport+2
  2841  01EF  0A84               	incf	4,f
  2842  01F0  0800               	movf	0,w
  2843  01F1  00DA               	movwf	_SETport+3
  2844  01F2                     l1623:	
  2845                           
  2846                           ;7seglibmain.h: 241: }
  2847                           ;7seglibmain.h: 243: if((compnumb <= 3.9) && (compnumb > 2.9))
  2848  01F2  309A               	movlw	154
  2849  01F3  00F0               	movwf	___ftge@ff1
  2850  01F4  3079               	movlw	121
  2851  01F5  00F1               	movwf	___ftge@ff1+1
  2852  01F6  3040               	movlw	64
  2853  01F7  00F2               	movwf	___ftge@ff1+2
  2854  01F8  1283               	bcf	3,5	;RP0=0, select bank0
  2855  01F9  1303               	bcf	3,6	;RP1=0, select bank0
  2856  01FA  0846               	movf	print_sevenseg@compnumb,w
  2857  01FB  00F3               	movwf	___ftge@ff2
  2858  01FC  0847               	movf	print_sevenseg@compnumb+1,w
  2859  01FD  00F4               	movwf	___ftge@ff2+1
  2860  01FE  0848               	movf	print_sevenseg@compnumb+2,w
  2861  01FF  00F5               	movwf	___ftge@ff2+2
  2862  0200  120A  118A  200B  120A  118A  	fcall	___ftge
  2863  0205  1C03               	btfss	3,0
  2864  0206  2AC2               	goto	l1669
  2865  0207  309A               	movlw	154
  2866  0208  00F0               	movwf	___ftge@ff1
  2867  0209  3039               	movlw	57
  2868  020A  00F1               	movwf	___ftge@ff1+1
  2869  020B  3040               	movlw	64
  2870  020C  00F2               	movwf	___ftge@ff1+2
  2871  020D  1283               	bcf	3,5	;RP0=0, select bank0
  2872  020E  1303               	bcf	3,6	;RP1=0, select bank0
  2873  020F  0846               	movf	print_sevenseg@compnumb,w
  2874  0210  00F3               	movwf	___ftge@ff2
  2875  0211  0847               	movf	print_sevenseg@compnumb+1,w
  2876  0212  00F4               	movwf	___ftge@ff2+1
  2877  0213  0848               	movf	print_sevenseg@compnumb+2,w
  2878  0214  00F5               	movwf	___ftge@ff2+2
  2879  0215  120A  118A  200B  120A  118A  	fcall	___ftge
  2880  021A  1803               	btfsc	3,0
  2881  021B  2AC2               	goto	l1669
  2882                           
  2883                           ;7seglibmain.h: 244: {
  2884                           ;7seglibmain.h: 245: if(compnumb == 3.0)
  2885  021C  3040               	movlw	64
  2886  021D  1283               	bcf	3,5	;RP0=0, select bank0
  2887  021E  1303               	bcf	3,6	;RP1=0, select bank0
  2888  021F  0647               	xorwf	print_sevenseg@compnumb+1,w
  2889  0220  3040               	movlw	64
  2890  0221  1903               	skipnz
  2891  0222  0648               	xorwf	print_sevenseg@compnumb+2,w
  2892  0223  0446               	iorwf	print_sevenseg@compnumb,w
  2893  0224  1D03               	btfss	3,2
  2894  0225  2A28               	goto	l1631
  2895                           
  2896                           ;7seglibmain.h: 246: fdef = 0;
  2897  0226  01D9               	clrf	_fdef
  2898  0227  01DA               	clrf	_fdef+1
  2899  0228                     l1631:	
  2900                           
  2901                           ;7seglibmain.h: 248: if(compnumb == 3.1)
  2902  0228  3066               	movlw	102
  2903  0229  0646               	xorwf	print_sevenseg@compnumb,w
  2904  022A  3046               	movlw	70
  2905  022B  1903               	skipnz
  2906  022C  0647               	xorwf	print_sevenseg@compnumb+1,w
  2907  022D  3040               	movlw	64
  2908  022E  1903               	skipnz
  2909  022F  0648               	xorwf	print_sevenseg@compnumb+2,w
  2910  0230  1D03               	btfss	3,2
  2911  0231  2A36               	goto	l1635
  2912                           
  2913                           ;7seglibmain.h: 249: fdef = 1;
  2914  0232  3001               	movlw	1
  2915  0233  00D9               	movwf	_fdef
  2916  0234  3000               	movlw	0
  2917  0235  00DA               	movwf	_fdef+1
  2918  0236                     l1635:	
  2919                           
  2920                           ;7seglibmain.h: 251: if(compnumb == 3.2)
  2921  0236  30CD               	movlw	205
  2922  0237  0646               	xorwf	print_sevenseg@compnumb,w
  2923  0238  304C               	movlw	76
  2924  0239  1903               	skipnz
  2925  023A  0647               	xorwf	print_sevenseg@compnumb+1,w
  2926  023B  3040               	movlw	64
  2927  023C  1903               	skipnz
  2928  023D  0648               	xorwf	print_sevenseg@compnumb+2,w
  2929  023E  1D03               	btfss	3,2
  2930  023F  2A44               	goto	l1639
  2931                           
  2932                           ;7seglibmain.h: 252: fdef = 2;
  2933  0240  3002               	movlw	2
  2934  0241  00D9               	movwf	_fdef
  2935  0242  3000               	movlw	0
  2936  0243  00DA               	movwf	_fdef+1
  2937  0244                     l1639:	
  2938                           
  2939                           ;7seglibmain.h: 254: if(compnumb == 3.3)
  2940  0244  3033               	movlw	51
  2941  0245  0646               	xorwf	print_sevenseg@compnumb,w
  2942  0246  3053               	movlw	83
  2943  0247  1903               	skipnz
  2944  0248  0647               	xorwf	print_sevenseg@compnumb+1,w
  2945  0249  3040               	movlw	64
  2946  024A  1903               	skipnz
  2947  024B  0648               	xorwf	print_sevenseg@compnumb+2,w
  2948  024C  1D03               	btfss	3,2
  2949  024D  2A52               	goto	l1643
  2950                           
  2951                           ;7seglibmain.h: 255: fdef = 3;
  2952  024E  3003               	movlw	3
  2953  024F  00D9               	movwf	_fdef
  2954  0250  3000               	movlw	0
  2955  0251  00DA               	movwf	_fdef+1
  2956  0252                     l1643:	
  2957                           
  2958                           ;7seglibmain.h: 257: if(compnumb == 3.4)
  2959  0252  309A               	movlw	154
  2960  0253  0646               	xorwf	print_sevenseg@compnumb,w
  2961  0254  3059               	movlw	89
  2962  0255  1903               	skipnz
  2963  0256  0647               	xorwf	print_sevenseg@compnumb+1,w
  2964  0257  3040               	movlw	64
  2965  0258  1903               	skipnz
  2966  0259  0648               	xorwf	print_sevenseg@compnumb+2,w
  2967  025A  1D03               	btfss	3,2
  2968  025B  2A60               	goto	l1647
  2969                           
  2970                           ;7seglibmain.h: 258: fdef = 4;
  2971  025C  3004               	movlw	4
  2972  025D  00D9               	movwf	_fdef
  2973  025E  3000               	movlw	0
  2974  025F  00DA               	movwf	_fdef+1
  2975  0260                     l1647:	
  2976                           
  2977                           ;7seglibmain.h: 260: if(compnumb == 3.5)
  2978  0260  3060               	movlw	96
  2979  0261  0647               	xorwf	print_sevenseg@compnumb+1,w
  2980  0262  3040               	movlw	64
  2981  0263  1903               	skipnz
  2982  0264  0648               	xorwf	print_sevenseg@compnumb+2,w
  2983  0265  0446               	iorwf	print_sevenseg@compnumb,w
  2984  0266  1D03               	btfss	3,2
  2985  0267  2A6C               	goto	l1651
  2986                           
  2987                           ;7seglibmain.h: 261: fdef = 5;
  2988  0268  3005               	movlw	5
  2989  0269  00D9               	movwf	_fdef
  2990  026A  3000               	movlw	0
  2991  026B  00DA               	movwf	_fdef+1
  2992  026C                     l1651:	
  2993                           
  2994                           ;7seglibmain.h: 263: if(compnumb == 3.6)
  2995  026C  3066               	movlw	102
  2996  026D  0646               	xorwf	print_sevenseg@compnumb,w
  2997  026E  3066               	movlw	102
  2998  026F  1903               	skipnz
  2999  0270  0647               	xorwf	print_sevenseg@compnumb+1,w
  3000  0271  3040               	movlw	64
  3001  0272  1903               	skipnz
  3002  0273  0648               	xorwf	print_sevenseg@compnumb+2,w
  3003  0274  1D03               	btfss	3,2
  3004  0275  2A7A               	goto	l1655
  3005                           
  3006                           ;7seglibmain.h: 264: fdef = 6;
  3007  0276  3006               	movlw	6
  3008  0277  00D9               	movwf	_fdef
  3009  0278  3000               	movlw	0
  3010  0279  00DA               	movwf	_fdef+1
  3011  027A                     l1655:	
  3012                           
  3013                           ;7seglibmain.h: 266: if(compnumb == 3.7)
  3014  027A  30CD               	movlw	205
  3015  027B  0646               	xorwf	print_sevenseg@compnumb,w
  3016  027C  306C               	movlw	108
  3017  027D  1903               	skipnz
  3018  027E  0647               	xorwf	print_sevenseg@compnumb+1,w
  3019  027F  3040               	movlw	64
  3020  0280  1903               	skipnz
  3021  0281  0648               	xorwf	print_sevenseg@compnumb+2,w
  3022  0282  1D03               	btfss	3,2
  3023  0283  2A88               	goto	l1659
  3024                           
  3025                           ;7seglibmain.h: 267: fdef = 7;
  3026  0284  3007               	movlw	7
  3027  0285  00D9               	movwf	_fdef
  3028  0286  3000               	movlw	0
  3029  0287  00DA               	movwf	_fdef+1
  3030  0288                     l1659:	
  3031                           
  3032                           ;7seglibmain.h: 269: if(compnumb == 3.8)
  3033  0288  3033               	movlw	51
  3034  0289  0646               	xorwf	print_sevenseg@compnumb,w
  3035  028A  3073               	movlw	115
  3036  028B  1903               	skipnz
  3037  028C  0647               	xorwf	print_sevenseg@compnumb+1,w
  3038  028D  3040               	movlw	64
  3039  028E  1903               	skipnz
  3040  028F  0648               	xorwf	print_sevenseg@compnumb+2,w
  3041  0290  1D03               	btfss	3,2
  3042  0291  2A96               	goto	l1663
  3043                           
  3044                           ;7seglibmain.h: 270: fdef = 8;
  3045  0292  3008               	movlw	8
  3046  0293  00D9               	movwf	_fdef
  3047  0294  3000               	movlw	0
  3048  0295  00DA               	movwf	_fdef+1
  3049  0296                     l1663:	
  3050                           
  3051                           ;7seglibmain.h: 272: if(compnumb == 3.9)
  3052  0296  309A               	movlw	154
  3053  0297  0646               	xorwf	print_sevenseg@compnumb,w
  3054  0298  3079               	movlw	121
  3055  0299  1903               	skipnz
  3056  029A  0647               	xorwf	print_sevenseg@compnumb+1,w
  3057  029B  3040               	movlw	64
  3058  029C  1903               	skipnz
  3059  029D  0648               	xorwf	print_sevenseg@compnumb+2,w
  3060  029E  1D03               	btfss	3,2
  3061  029F  2AA4               	goto	l108
  3062                           
  3063                           ;7seglibmain.h: 273: fdef = 9;
  3064  02A0  3009               	movlw	9
  3065  02A1  00D9               	movwf	_fdef
  3066  02A2  3000               	movlw	0
  3067  02A3  00DA               	movwf	_fdef+1
  3068  02A4                     l108:	
  3069                           
  3070                           ;7seglibmain.h: 275: SETport[0] = numlib[13];
  3071  02A4  1683               	bsf	3,5	;RP0=1, select bank1
  3072  02A5  1303               	bcf	3,6	;RP1=0, select bank1
  3073  02A6  0855               	movf	((_numlib+1)^(0+128)+52),w
  3074  02A7  1283               	bcf	3,5	;RP0=0, select bank0
  3075  02A8  1303               	bcf	3,6	;RP1=0, select bank0
  3076  02A9  00D8               	movwf	_SETport+1
  3077  02AA  1683               	bsf	3,5	;RP0=1, select bank1
  3078  02AB  1303               	bcf	3,6	;RP1=0, select bank1
  3079  02AC  0854               	movf	(_numlib^(0+128)+52),w
  3080  02AD  1283               	bcf	3,5	;RP0=0, select bank0
  3081  02AE  1303               	bcf	3,6	;RP1=0, select bank0
  3082  02AF  00D7               	movwf	_SETport
  3083                           
  3084                           ;7seglibmain.h: 276: SETport[1] = numlib[fdef];
  3085  02B0  0859               	movf	_fdef,w
  3086  02B1  00CB               	movwf	??_print_sevenseg
  3087  02B2  3001               	movlw	1
  3088  02B3                     u3275:	
  3089  02B3  1003               	clrc
  3090  02B4  0DCB               	rlf	??_print_sevenseg,f
  3091  02B5  3EFF               	addlw	-1
  3092  02B6  1D03               	skipz
  3093  02B7  2AB3               	goto	u3275
  3094  02B8  1003               	clrc
  3095  02B9  0D4B               	rlf	??_print_sevenseg,w
  3096  02BA  3EA0               	addlw	(low (_numlib| 0))& (0+255)
  3097  02BB  0084               	movwf	4
  3098  02BC  1383               	bcf	3,7	;select IRP bank1
  3099  02BD  0800               	movf	0,w
  3100  02BE  00D9               	movwf	_SETport+2
  3101  02BF  0A84               	incf	4,f
  3102  02C0  0800               	movf	0,w
  3103  02C1  00DA               	movwf	_SETport+3
  3104  02C2                     l1669:	
  3105                           
  3106                           ;7seglibmain.h: 277: }
  3107                           ;7seglibmain.h: 279: if((compnumb <= 4.9) && (compnumb > 3.9))
  3108  02C2  30CD               	movlw	205
  3109  02C3  00F0               	movwf	___ftge@ff1
  3110  02C4  309C               	movlw	156
  3111  02C5  00F1               	movwf	___ftge@ff1+1
  3112  02C6  3040               	movlw	64
  3113  02C7  00F2               	movwf	___ftge@ff1+2
  3114  02C8  1283               	bcf	3,5	;RP0=0, select bank0
  3115  02C9  1303               	bcf	3,6	;RP1=0, select bank0
  3116  02CA  0846               	movf	print_sevenseg@compnumb,w
  3117  02CB  00F3               	movwf	___ftge@ff2
  3118  02CC  0847               	movf	print_sevenseg@compnumb+1,w
  3119  02CD  00F4               	movwf	___ftge@ff2+1
  3120  02CE  0848               	movf	print_sevenseg@compnumb+2,w
  3121  02CF  00F5               	movwf	___ftge@ff2+2
  3122  02D0  120A  118A  200B  120A  118A  	fcall	___ftge
  3123  02D5  1C03               	btfss	3,0
  3124  02D6  2B92               	goto	l1715
  3125  02D7  309A               	movlw	154
  3126  02D8  00F0               	movwf	___ftge@ff1
  3127  02D9  3079               	movlw	121
  3128  02DA  00F1               	movwf	___ftge@ff1+1
  3129  02DB  3040               	movlw	64
  3130  02DC  00F2               	movwf	___ftge@ff1+2
  3131  02DD  1283               	bcf	3,5	;RP0=0, select bank0
  3132  02DE  1303               	bcf	3,6	;RP1=0, select bank0
  3133  02DF  0846               	movf	print_sevenseg@compnumb,w
  3134  02E0  00F3               	movwf	___ftge@ff2
  3135  02E1  0847               	movf	print_sevenseg@compnumb+1,w
  3136  02E2  00F4               	movwf	___ftge@ff2+1
  3137  02E3  0848               	movf	print_sevenseg@compnumb+2,w
  3138  02E4  00F5               	movwf	___ftge@ff2+2
  3139  02E5  120A  118A  200B  120A  118A  	fcall	___ftge
  3140  02EA  1803               	btfsc	3,0
  3141  02EB  2B92               	goto	l1715
  3142                           
  3143                           ;7seglibmain.h: 280: {
  3144                           ;7seglibmain.h: 281: if(compnumb == 4.0)
  3145  02EC  3080               	movlw	128
  3146  02ED  1283               	bcf	3,5	;RP0=0, select bank0
  3147  02EE  1303               	bcf	3,6	;RP1=0, select bank0
  3148  02EF  0647               	xorwf	print_sevenseg@compnumb+1,w
  3149  02F0  3040               	movlw	64
  3150  02F1  1903               	skipnz
  3151  02F2  0648               	xorwf	print_sevenseg@compnumb+2,w
  3152  02F3  0446               	iorwf	print_sevenseg@compnumb,w
  3153  02F4  1D03               	btfss	3,2
  3154  02F5  2AF8               	goto	l1677
  3155                           
  3156                           ;7seglibmain.h: 282: fdef = 0;
  3157  02F6  01D9               	clrf	_fdef
  3158  02F7  01DA               	clrf	_fdef+1
  3159  02F8                     l1677:	
  3160                           
  3161                           ;7seglibmain.h: 284: if(compnumb == 4.1)
  3162  02F8  3033               	movlw	51
  3163  02F9  0646               	xorwf	print_sevenseg@compnumb,w
  3164  02FA  3083               	movlw	131
  3165  02FB  1903               	skipnz
  3166  02FC  0647               	xorwf	print_sevenseg@compnumb+1,w
  3167  02FD  3040               	movlw	64
  3168  02FE  1903               	skipnz
  3169  02FF  0648               	xorwf	print_sevenseg@compnumb+2,w
  3170  0300  1D03               	btfss	3,2
  3171  0301  2B06               	goto	l1681
  3172                           
  3173                           ;7seglibmain.h: 285: fdef = 1;
  3174  0302  3001               	movlw	1
  3175  0303  00D9               	movwf	_fdef
  3176  0304  3000               	movlw	0
  3177  0305  00DA               	movwf	_fdef+1
  3178  0306                     l1681:	
  3179                           
  3180                           ;7seglibmain.h: 287: if(compnumb == 4.2)
  3181  0306  3066               	movlw	102
  3182  0307  0646               	xorwf	print_sevenseg@compnumb,w
  3183  0308  3086               	movlw	134
  3184  0309  1903               	skipnz
  3185  030A  0647               	xorwf	print_sevenseg@compnumb+1,w
  3186  030B  3040               	movlw	64
  3187  030C  1903               	skipnz
  3188  030D  0648               	xorwf	print_sevenseg@compnumb+2,w
  3189  030E  1D03               	btfss	3,2
  3190  030F  2B14               	goto	l1685
  3191                           
  3192                           ;7seglibmain.h: 288: fdef = 2;
  3193  0310  3002               	movlw	2
  3194  0311  00D9               	movwf	_fdef
  3195  0312  3000               	movlw	0
  3196  0313  00DA               	movwf	_fdef+1
  3197  0314                     l1685:	
  3198                           
  3199                           ;7seglibmain.h: 290: if(compnumb == 4.3)
  3200  0314  309A               	movlw	154
  3201  0315  0646               	xorwf	print_sevenseg@compnumb,w
  3202  0316  3089               	movlw	137
  3203  0317  1903               	skipnz
  3204  0318  0647               	xorwf	print_sevenseg@compnumb+1,w
  3205  0319  3040               	movlw	64
  3206  031A  1903               	skipnz
  3207  031B  0648               	xorwf	print_sevenseg@compnumb+2,w
  3208  031C  1D03               	btfss	3,2
  3209  031D  2B22               	goto	l1689
  3210                           
  3211                           ;7seglibmain.h: 291: fdef = 3;
  3212  031E  3003               	movlw	3
  3213  031F  00D9               	movwf	_fdef
  3214  0320  3000               	movlw	0
  3215  0321  00DA               	movwf	_fdef+1
  3216  0322                     l1689:	
  3217                           
  3218                           ;7seglibmain.h: 293: if(compnumb == 4.4)
  3219  0322  30CD               	movlw	205
  3220  0323  0646               	xorwf	print_sevenseg@compnumb,w
  3221  0324  308C               	movlw	140
  3222  0325  1903               	skipnz
  3223  0326  0647               	xorwf	print_sevenseg@compnumb+1,w
  3224  0327  3040               	movlw	64
  3225  0328  1903               	skipnz
  3226  0329  0648               	xorwf	print_sevenseg@compnumb+2,w
  3227  032A  1D03               	btfss	3,2
  3228  032B  2B30               	goto	l1693
  3229                           
  3230                           ;7seglibmain.h: 294: fdef = 4;
  3231  032C  3004               	movlw	4
  3232  032D  00D9               	movwf	_fdef
  3233  032E  3000               	movlw	0
  3234  032F  00DA               	movwf	_fdef+1
  3235  0330                     l1693:	
  3236                           
  3237                           ;7seglibmain.h: 296: if(compnumb == 4.5)
  3238  0330  3090               	movlw	144
  3239  0331  0647               	xorwf	print_sevenseg@compnumb+1,w
  3240  0332  3040               	movlw	64
  3241  0333  1903               	skipnz
  3242  0334  0648               	xorwf	print_sevenseg@compnumb+2,w
  3243  0335  0446               	iorwf	print_sevenseg@compnumb,w
  3244  0336  1D03               	btfss	3,2
  3245  0337  2B3C               	goto	l1697
  3246                           
  3247                           ;7seglibmain.h: 297: fdef = 5;
  3248  0338  3005               	movlw	5
  3249  0339  00D9               	movwf	_fdef
  3250  033A  3000               	movlw	0
  3251  033B  00DA               	movwf	_fdef+1
  3252  033C                     l1697:	
  3253                           
  3254                           ;7seglibmain.h: 299: if(compnumb == 4.6)
  3255  033C  3033               	movlw	51
  3256  033D  0646               	xorwf	print_sevenseg@compnumb,w
  3257  033E  3093               	movlw	147
  3258  033F  1903               	skipnz
  3259  0340  0647               	xorwf	print_sevenseg@compnumb+1,w
  3260  0341  3040               	movlw	64
  3261  0342  1903               	skipnz
  3262  0343  0648               	xorwf	print_sevenseg@compnumb+2,w
  3263  0344  1D03               	btfss	3,2
  3264  0345  2B4A               	goto	l1701
  3265                           
  3266                           ;7seglibmain.h: 300: fdef = 6;
  3267  0346  3006               	movlw	6
  3268  0347  00D9               	movwf	_fdef
  3269  0348  3000               	movlw	0
  3270  0349  00DA               	movwf	_fdef+1
  3271  034A                     l1701:	
  3272                           
  3273                           ;7seglibmain.h: 302: if(compnumb == 4.7)
  3274  034A  3066               	movlw	102
  3275  034B  0646               	xorwf	print_sevenseg@compnumb,w
  3276  034C  3096               	movlw	150
  3277  034D  1903               	skipnz
  3278  034E  0647               	xorwf	print_sevenseg@compnumb+1,w
  3279  034F  3040               	movlw	64
  3280  0350  1903               	skipnz
  3281  0351  0648               	xorwf	print_sevenseg@compnumb+2,w
  3282  0352  1D03               	btfss	3,2
  3283  0353  2B58               	goto	l1705
  3284                           
  3285                           ;7seglibmain.h: 303: fdef = 7;
  3286  0354  3007               	movlw	7
  3287  0355  00D9               	movwf	_fdef
  3288  0356  3000               	movlw	0
  3289  0357  00DA               	movwf	_fdef+1
  3290  0358                     l1705:	
  3291                           
  3292                           ;7seglibmain.h: 305: if(compnumb == 4.8)
  3293  0358  309A               	movlw	154
  3294  0359  0646               	xorwf	print_sevenseg@compnumb,w
  3295  035A  3099               	movlw	153
  3296  035B  1903               	skipnz
  3297  035C  0647               	xorwf	print_sevenseg@compnumb+1,w
  3298  035D  3040               	movlw	64
  3299  035E  1903               	skipnz
  3300  035F  0648               	xorwf	print_sevenseg@compnumb+2,w
  3301  0360  1D03               	btfss	3,2
  3302  0361  2B66               	goto	l1709
  3303                           
  3304                           ;7seglibmain.h: 306: fdef = 8;
  3305  0362  3008               	movlw	8
  3306  0363  00D9               	movwf	_fdef
  3307  0364  3000               	movlw	0
  3308  0365  00DA               	movwf	_fdef+1
  3309  0366                     l1709:	
  3310                           
  3311                           ;7seglibmain.h: 308: if(compnumb == 4.9)
  3312  0366  30CD               	movlw	205
  3313  0367  0646               	xorwf	print_sevenseg@compnumb,w
  3314  0368  309C               	movlw	156
  3315  0369  1903               	skipnz
  3316  036A  0647               	xorwf	print_sevenseg@compnumb+1,w
  3317  036B  3040               	movlw	64
  3318  036C  1903               	skipnz
  3319  036D  0648               	xorwf	print_sevenseg@compnumb+2,w
  3320  036E  1D03               	btfss	3,2
  3321  036F  2B74               	goto	l119
  3322                           
  3323                           ;7seglibmain.h: 309: fdef = 9;
  3324  0370  3009               	movlw	9
  3325  0371  00D9               	movwf	_fdef
  3326  0372  3000               	movlw	0
  3327  0373  00DA               	movwf	_fdef+1
  3328  0374                     l119:	
  3329                           
  3330                           ;7seglibmain.h: 311: SETport[0] = numlib[14];
  3331  0374  1683               	bsf	3,5	;RP0=1, select bank1
  3332  0375  1303               	bcf	3,6	;RP1=0, select bank1
  3333  0376  0859               	movf	((_numlib+1)^(0+128)+56),w
  3334  0377  1283               	bcf	3,5	;RP0=0, select bank0
  3335  0378  1303               	bcf	3,6	;RP1=0, select bank0
  3336  0379  00D8               	movwf	_SETport+1
  3337  037A  1683               	bsf	3,5	;RP0=1, select bank1
  3338  037B  1303               	bcf	3,6	;RP1=0, select bank1
  3339  037C  0858               	movf	(_numlib^(0+128)+56),w
  3340  037D  1283               	bcf	3,5	;RP0=0, select bank0
  3341  037E  1303               	bcf	3,6	;RP1=0, select bank0
  3342  037F  00D7               	movwf	_SETport
  3343                           
  3344                           ;7seglibmain.h: 312: SETport[1] = numlib[fdef];
  3345  0380  0859               	movf	_fdef,w
  3346  0381  00CB               	movwf	??_print_sevenseg
  3347  0382  3001               	movlw	1
  3348  0383                     u3405:	
  3349  0383  1003               	clrc
  3350  0384  0DCB               	rlf	??_print_sevenseg,f
  3351  0385  3EFF               	addlw	-1
  3352  0386  1D03               	skipz
  3353  0387  2B83               	goto	u3405
  3354  0388  1003               	clrc
  3355  0389  0D4B               	rlf	??_print_sevenseg,w
  3356  038A  3EA0               	addlw	(low (_numlib| 0))& (0+255)
  3357  038B  0084               	movwf	4
  3358  038C  1383               	bcf	3,7	;select IRP bank1
  3359  038D  0800               	movf	0,w
  3360  038E  00D9               	movwf	_SETport+2
  3361  038F  0A84               	incf	4,f
  3362  0390  0800               	movf	0,w
  3363  0391  00DA               	movwf	_SETport+3
  3364  0392                     l1715:	
  3365                           
  3366                           ;7seglibmain.h: 313: }
  3367                           ;7seglibmain.h: 315: if((compnumb <= 5.9) && (compnumb > 4.9))
  3368  0392  30CD               	movlw	205
  3369  0393  00F0               	movwf	___ftge@ff1
  3370  0394  30BC               	movlw	188
  3371  0395  00F1               	movwf	___ftge@ff1+1
  3372  0396  3040               	movlw	64
  3373  0397  00F2               	movwf	___ftge@ff1+2
  3374  0398  1283               	bcf	3,5	;RP0=0, select bank0
  3375  0399  1303               	bcf	3,6	;RP1=0, select bank0
  3376  039A  0846               	movf	print_sevenseg@compnumb,w
  3377  039B  00F3               	movwf	___ftge@ff2
  3378  039C  0847               	movf	print_sevenseg@compnumb+1,w
  3379  039D  00F4               	movwf	___ftge@ff2+1
  3380  039E  0848               	movf	print_sevenseg@compnumb+2,w
  3381  039F  00F5               	movwf	___ftge@ff2+2
  3382  03A0  120A  118A  200B  120A  118A  	fcall	___ftge
  3383  03A5  1C03               	btfss	3,0
  3384  03A6  2C62               	goto	l1761
  3385  03A7  30CD               	movlw	205
  3386  03A8  00F0               	movwf	___ftge@ff1
  3387  03A9  309C               	movlw	156
  3388  03AA  00F1               	movwf	___ftge@ff1+1
  3389  03AB  3040               	movlw	64
  3390  03AC  00F2               	movwf	___ftge@ff1+2
  3391  03AD  1283               	bcf	3,5	;RP0=0, select bank0
  3392  03AE  1303               	bcf	3,6	;RP1=0, select bank0
  3393  03AF  0846               	movf	print_sevenseg@compnumb,w
  3394  03B0  00F3               	movwf	___ftge@ff2
  3395  03B1  0847               	movf	print_sevenseg@compnumb+1,w
  3396  03B2  00F4               	movwf	___ftge@ff2+1
  3397  03B3  0848               	movf	print_sevenseg@compnumb+2,w
  3398  03B4  00F5               	movwf	___ftge@ff2+2
  3399  03B5  120A  118A  200B  120A  118A  	fcall	___ftge
  3400  03BA  1803               	btfsc	3,0
  3401  03BB  2C62               	goto	l1761
  3402                           
  3403                           ;7seglibmain.h: 316: {
  3404                           ;7seglibmain.h: 317: if(compnumb == 5.0)
  3405  03BC  30A0               	movlw	160
  3406  03BD  1283               	bcf	3,5	;RP0=0, select bank0
  3407  03BE  1303               	bcf	3,6	;RP1=0, select bank0
  3408  03BF  0647               	xorwf	print_sevenseg@compnumb+1,w
  3409  03C0  3040               	movlw	64
  3410  03C1  1903               	skipnz
  3411  03C2  0648               	xorwf	print_sevenseg@compnumb+2,w
  3412  03C3  0446               	iorwf	print_sevenseg@compnumb,w
  3413  03C4  1D03               	btfss	3,2
  3414  03C5  2BC8               	goto	l1723
  3415                           
  3416                           ;7seglibmain.h: 318: fdef = 0;
  3417  03C6  01D9               	clrf	_fdef
  3418  03C7  01DA               	clrf	_fdef+1
  3419  03C8                     l1723:	
  3420                           
  3421                           ;7seglibmain.h: 320: if(compnumb == 5.1)
  3422  03C8  3033               	movlw	51
  3423  03C9  0646               	xorwf	print_sevenseg@compnumb,w
  3424  03CA  30A3               	movlw	163
  3425  03CB  1903               	skipnz
  3426  03CC  0647               	xorwf	print_sevenseg@compnumb+1,w
  3427  03CD  3040               	movlw	64
  3428  03CE  1903               	skipnz
  3429  03CF  0648               	xorwf	print_sevenseg@compnumb+2,w
  3430  03D0  1D03               	btfss	3,2
  3431  03D1  2BD6               	goto	l1727
  3432                           
  3433                           ;7seglibmain.h: 321: fdef = 1;
  3434  03D2  3001               	movlw	1
  3435  03D3  00D9               	movwf	_fdef
  3436  03D4  3000               	movlw	0
  3437  03D5  00DA               	movwf	_fdef+1
  3438  03D6                     l1727:	
  3439                           
  3440                           ;7seglibmain.h: 323: if(compnumb == 5.2)
  3441  03D6  3066               	movlw	102
  3442  03D7  0646               	xorwf	print_sevenseg@compnumb,w
  3443  03D8  30A6               	movlw	166
  3444  03D9  1903               	skipnz
  3445  03DA  0647               	xorwf	print_sevenseg@compnumb+1,w
  3446  03DB  3040               	movlw	64
  3447  03DC  1903               	skipnz
  3448  03DD  0648               	xorwf	print_sevenseg@compnumb+2,w
  3449  03DE  1D03               	btfss	3,2
  3450  03DF  2BE4               	goto	l1731
  3451                           
  3452                           ;7seglibmain.h: 324: fdef = 2;
  3453  03E0  3002               	movlw	2
  3454  03E1  00D9               	movwf	_fdef
  3455  03E2  3000               	movlw	0
  3456  03E3  00DA               	movwf	_fdef+1
  3457  03E4                     l1731:	
  3458                           
  3459                           ;7seglibmain.h: 326: if(compnumb == 5.3)
  3460  03E4  309A               	movlw	154
  3461  03E5  0646               	xorwf	print_sevenseg@compnumb,w
  3462  03E6  30A9               	movlw	169
  3463  03E7  1903               	skipnz
  3464  03E8  0647               	xorwf	print_sevenseg@compnumb+1,w
  3465  03E9  3040               	movlw	64
  3466  03EA  1903               	skipnz
  3467  03EB  0648               	xorwf	print_sevenseg@compnumb+2,w
  3468  03EC  1D03               	btfss	3,2
  3469  03ED  2BF2               	goto	l1735
  3470                           
  3471                           ;7seglibmain.h: 327: fdef = 3;
  3472  03EE  3003               	movlw	3
  3473  03EF  00D9               	movwf	_fdef
  3474  03F0  3000               	movlw	0
  3475  03F1  00DA               	movwf	_fdef+1
  3476  03F2                     l1735:	
  3477                           
  3478                           ;7seglibmain.h: 329: if(compnumb == 5.4)
  3479  03F2  30CD               	movlw	205
  3480  03F3  0646               	xorwf	print_sevenseg@compnumb,w
  3481  03F4  30AC               	movlw	172
  3482  03F5  1903               	skipnz
  3483  03F6  0647               	xorwf	print_sevenseg@compnumb+1,w
  3484  03F7  3040               	movlw	64
  3485  03F8  1903               	skipnz
  3486  03F9  0648               	xorwf	print_sevenseg@compnumb+2,w
  3487  03FA  1D03               	btfss	3,2
  3488  03FB  2C00               	goto	l1739
  3489                           
  3490                           ;7seglibmain.h: 330: fdef = 4;
  3491  03FC  3004               	movlw	4
  3492  03FD  00D9               	movwf	_fdef
  3493  03FE  3000               	movlw	0
  3494  03FF  00DA               	movwf	_fdef+1
  3495  0400                     l1739:	
  3496                           
  3497                           ;7seglibmain.h: 332: if(compnumb == 5.5)
  3498  0400  30B0               	movlw	176
  3499  0401  0647               	xorwf	print_sevenseg@compnumb+1,w
  3500  0402  3040               	movlw	64
  3501  0403  1903               	skipnz
  3502  0404  0648               	xorwf	print_sevenseg@compnumb+2,w
  3503  0405  0446               	iorwf	print_sevenseg@compnumb,w
  3504  0406  1D03               	btfss	3,2
  3505  0407  2C0C               	goto	l1743
  3506                           
  3507                           ;7seglibmain.h: 333: fdef = 5;
  3508  0408  3005               	movlw	5
  3509  0409  00D9               	movwf	_fdef
  3510  040A  3000               	movlw	0
  3511  040B  00DA               	movwf	_fdef+1
  3512  040C                     l1743:	
  3513                           
  3514                           ;7seglibmain.h: 335: if(compnumb == 5.6)
  3515  040C  3033               	movlw	51
  3516  040D  0646               	xorwf	print_sevenseg@compnumb,w
  3517  040E  30B3               	movlw	179
  3518  040F  1903               	skipnz
  3519  0410  0647               	xorwf	print_sevenseg@compnumb+1,w
  3520  0411  3040               	movlw	64
  3521  0412  1903               	skipnz
  3522  0413  0648               	xorwf	print_sevenseg@compnumb+2,w
  3523  0414  1D03               	btfss	3,2
  3524  0415  2C1A               	goto	l1747
  3525                           
  3526                           ;7seglibmain.h: 336: fdef = 6;
  3527  0416  3006               	movlw	6
  3528  0417  00D9               	movwf	_fdef
  3529  0418  3000               	movlw	0
  3530  0419  00DA               	movwf	_fdef+1
  3531  041A                     l1747:	
  3532                           
  3533                           ;7seglibmain.h: 338: if(compnumb == 5.7)
  3534  041A  3066               	movlw	102
  3535  041B  0646               	xorwf	print_sevenseg@compnumb,w
  3536  041C  30B6               	movlw	182
  3537  041D  1903               	skipnz
  3538  041E  0647               	xorwf	print_sevenseg@compnumb+1,w
  3539  041F  3040               	movlw	64
  3540  0420  1903               	skipnz
  3541  0421  0648               	xorwf	print_sevenseg@compnumb+2,w
  3542  0422  1D03               	btfss	3,2
  3543  0423  2C28               	goto	l1751
  3544                           
  3545                           ;7seglibmain.h: 339: fdef = 7;
  3546  0424  3007               	movlw	7
  3547  0425  00D9               	movwf	_fdef
  3548  0426  3000               	movlw	0
  3549  0427  00DA               	movwf	_fdef+1
  3550  0428                     l1751:	
  3551                           
  3552                           ;7seglibmain.h: 341: if(compnumb == 5.8)
  3553  0428  309A               	movlw	154
  3554  0429  0646               	xorwf	print_sevenseg@compnumb,w
  3555  042A  30B9               	movlw	185
  3556  042B  1903               	skipnz
  3557  042C  0647               	xorwf	print_sevenseg@compnumb+1,w
  3558  042D  3040               	movlw	64
  3559  042E  1903               	skipnz
  3560  042F  0648               	xorwf	print_sevenseg@compnumb+2,w
  3561  0430  1D03               	btfss	3,2
  3562  0431  2C36               	goto	l1755
  3563                           
  3564                           ;7seglibmain.h: 342: fdef = 8;
  3565  0432  3008               	movlw	8
  3566  0433  00D9               	movwf	_fdef
  3567  0434  3000               	movlw	0
  3568  0435  00DA               	movwf	_fdef+1
  3569  0436                     l1755:	
  3570                           
  3571                           ;7seglibmain.h: 344: if(compnumb == 5.9)
  3572  0436  30CD               	movlw	205
  3573  0437  0646               	xorwf	print_sevenseg@compnumb,w
  3574  0438  30BC               	movlw	188
  3575  0439  1903               	skipnz
  3576  043A  0647               	xorwf	print_sevenseg@compnumb+1,w
  3577  043B  3040               	movlw	64
  3578  043C  1903               	skipnz
  3579  043D  0648               	xorwf	print_sevenseg@compnumb+2,w
  3580  043E  1D03               	btfss	3,2
  3581  043F  2C44               	goto	l130
  3582                           
  3583                           ;7seglibmain.h: 345: fdef = 9;
  3584  0440  3009               	movlw	9
  3585  0441  00D9               	movwf	_fdef
  3586  0442  3000               	movlw	0
  3587  0443  00DA               	movwf	_fdef+1
  3588  0444                     l130:	
  3589                           
  3590                           ;7seglibmain.h: 347: SETport[0] = numlib[15];
  3591  0444  1683               	bsf	3,5	;RP0=1, select bank1
  3592  0445  1303               	bcf	3,6	;RP1=0, select bank1
  3593  0446  085D               	movf	((_numlib+1)^(0+128)+60),w
  3594  0447  1283               	bcf	3,5	;RP0=0, select bank0
  3595  0448  1303               	bcf	3,6	;RP1=0, select bank0
  3596  0449  00D8               	movwf	_SETport+1
  3597  044A  1683               	bsf	3,5	;RP0=1, select bank1
  3598  044B  1303               	bcf	3,6	;RP1=0, select bank1
  3599  044C  085C               	movf	(_numlib^(0+128)+60),w
  3600  044D  1283               	bcf	3,5	;RP0=0, select bank0
  3601  044E  1303               	bcf	3,6	;RP1=0, select bank0
  3602  044F  00D7               	movwf	_SETport
  3603                           
  3604                           ;7seglibmain.h: 348: SETport[1] = numlib[fdef];
  3605  0450  0859               	movf	_fdef,w
  3606  0451  00CB               	movwf	??_print_sevenseg
  3607  0452  3001               	movlw	1
  3608  0453                     u3535:	
  3609  0453  1003               	clrc
  3610  0454  0DCB               	rlf	??_print_sevenseg,f
  3611  0455  3EFF               	addlw	-1
  3612  0456  1D03               	skipz
  3613  0457  2C53               	goto	u3535
  3614  0458  1003               	clrc
  3615  0459  0D4B               	rlf	??_print_sevenseg,w
  3616  045A  3EA0               	addlw	(low (_numlib| 0))& (0+255)
  3617  045B  0084               	movwf	4
  3618  045C  1383               	bcf	3,7	;select IRP bank1
  3619  045D  0800               	movf	0,w
  3620  045E  00D9               	movwf	_SETport+2
  3621  045F  0A84               	incf	4,f
  3622  0460  0800               	movf	0,w
  3623  0461  00DA               	movwf	_SETport+3
  3624  0462                     l1761:	
  3625                           
  3626                           ;7seglibmain.h: 349: }
  3627                           ;7seglibmain.h: 351: if((compnumb <= 6.9) && (compnumb > 5.9))
  3628  0462  30CD               	movlw	205
  3629  0463  00F0               	movwf	___ftge@ff1
  3630  0464  30DC               	movlw	220
  3631  0465  00F1               	movwf	___ftge@ff1+1
  3632  0466  3040               	movlw	64
  3633  0467  00F2               	movwf	___ftge@ff1+2
  3634  0468  1283               	bcf	3,5	;RP0=0, select bank0
  3635  0469  1303               	bcf	3,6	;RP1=0, select bank0
  3636  046A  0846               	movf	print_sevenseg@compnumb,w
  3637  046B  00F3               	movwf	___ftge@ff2
  3638  046C  0847               	movf	print_sevenseg@compnumb+1,w
  3639  046D  00F4               	movwf	___ftge@ff2+1
  3640  046E  0848               	movf	print_sevenseg@compnumb+2,w
  3641  046F  00F5               	movwf	___ftge@ff2+2
  3642  0470  120A  118A  200B  120A  118A  	fcall	___ftge
  3643  0475  1C03               	btfss	3,0
  3644  0476  2D32               	goto	l1807
  3645  0477  30CD               	movlw	205
  3646  0478  00F0               	movwf	___ftge@ff1
  3647  0479  30BC               	movlw	188
  3648  047A  00F1               	movwf	___ftge@ff1+1
  3649  047B  3040               	movlw	64
  3650  047C  00F2               	movwf	___ftge@ff1+2
  3651  047D  1283               	bcf	3,5	;RP0=0, select bank0
  3652  047E  1303               	bcf	3,6	;RP1=0, select bank0
  3653  047F  0846               	movf	print_sevenseg@compnumb,w
  3654  0480  00F3               	movwf	___ftge@ff2
  3655  0481  0847               	movf	print_sevenseg@compnumb+1,w
  3656  0482  00F4               	movwf	___ftge@ff2+1
  3657  0483  0848               	movf	print_sevenseg@compnumb+2,w
  3658  0484  00F5               	movwf	___ftge@ff2+2
  3659  0485  120A  118A  200B  120A  118A  	fcall	___ftge
  3660  048A  1803               	btfsc	3,0
  3661  048B  2D32               	goto	l1807
  3662                           
  3663                           ;7seglibmain.h: 352: {
  3664                           ;7seglibmain.h: 353: if(compnumb == 6.0)
  3665  048C  30C0               	movlw	192
  3666  048D  1283               	bcf	3,5	;RP0=0, select bank0
  3667  048E  1303               	bcf	3,6	;RP1=0, select bank0
  3668  048F  0647               	xorwf	print_sevenseg@compnumb+1,w
  3669  0490  3040               	movlw	64
  3670  0491  1903               	skipnz
  3671  0492  0648               	xorwf	print_sevenseg@compnumb+2,w
  3672  0493  0446               	iorwf	print_sevenseg@compnumb,w
  3673  0494  1D03               	btfss	3,2
  3674  0495  2C98               	goto	l1769
  3675                           
  3676                           ;7seglibmain.h: 354: fdef = 0;
  3677  0496  01D9               	clrf	_fdef
  3678  0497  01DA               	clrf	_fdef+1
  3679  0498                     l1769:	
  3680                           
  3681                           ;7seglibmain.h: 356: if(compnumb == 6.1)
  3682  0498  3033               	movlw	51
  3683  0499  0646               	xorwf	print_sevenseg@compnumb,w
  3684  049A  30C3               	movlw	195
  3685  049B  1903               	skipnz
  3686  049C  0647               	xorwf	print_sevenseg@compnumb+1,w
  3687  049D  3040               	movlw	64
  3688  049E  1903               	skipnz
  3689  049F  0648               	xorwf	print_sevenseg@compnumb+2,w
  3690  04A0  1D03               	btfss	3,2
  3691  04A1  2CA6               	goto	l1773
  3692                           
  3693                           ;7seglibmain.h: 357: fdef = 1;
  3694  04A2  3001               	movlw	1
  3695  04A3  00D9               	movwf	_fdef
  3696  04A4  3000               	movlw	0
  3697  04A5  00DA               	movwf	_fdef+1
  3698  04A6                     l1773:	
  3699                           
  3700                           ;7seglibmain.h: 359: if(compnumb == 6.2)
  3701  04A6  3066               	movlw	102
  3702  04A7  0646               	xorwf	print_sevenseg@compnumb,w
  3703  04A8  30C6               	movlw	198
  3704  04A9  1903               	skipnz
  3705  04AA  0647               	xorwf	print_sevenseg@compnumb+1,w
  3706  04AB  3040               	movlw	64
  3707  04AC  1903               	skipnz
  3708  04AD  0648               	xorwf	print_sevenseg@compnumb+2,w
  3709  04AE  1D03               	btfss	3,2
  3710  04AF  2CB4               	goto	l1777
  3711                           
  3712                           ;7seglibmain.h: 360: fdef = 2;
  3713  04B0  3002               	movlw	2
  3714  04B1  00D9               	movwf	_fdef
  3715  04B2  3000               	movlw	0
  3716  04B3  00DA               	movwf	_fdef+1
  3717  04B4                     l1777:	
  3718                           
  3719                           ;7seglibmain.h: 362: if(compnumb == 6.3)
  3720  04B4  309A               	movlw	154
  3721  04B5  0646               	xorwf	print_sevenseg@compnumb,w
  3722  04B6  30C9               	movlw	201
  3723  04B7  1903               	skipnz
  3724  04B8  0647               	xorwf	print_sevenseg@compnumb+1,w
  3725  04B9  3040               	movlw	64
  3726  04BA  1903               	skipnz
  3727  04BB  0648               	xorwf	print_sevenseg@compnumb+2,w
  3728  04BC  1D03               	btfss	3,2
  3729  04BD  2CC2               	goto	l1781
  3730                           
  3731                           ;7seglibmain.h: 363: fdef = 3;
  3732  04BE  3003               	movlw	3
  3733  04BF  00D9               	movwf	_fdef
  3734  04C0  3000               	movlw	0
  3735  04C1  00DA               	movwf	_fdef+1
  3736  04C2                     l1781:	
  3737                           
  3738                           ;7seglibmain.h: 365: if(compnumb == 6.4)
  3739  04C2  30CD               	movlw	205
  3740  04C3  0646               	xorwf	print_sevenseg@compnumb,w
  3741  04C4  30CC               	movlw	204
  3742  04C5  1903               	skipnz
  3743  04C6  0647               	xorwf	print_sevenseg@compnumb+1,w
  3744  04C7  3040               	movlw	64
  3745  04C8  1903               	skipnz
  3746  04C9  0648               	xorwf	print_sevenseg@compnumb+2,w
  3747  04CA  1D03               	btfss	3,2
  3748  04CB  2CD0               	goto	l1785
  3749                           
  3750                           ;7seglibmain.h: 366: fdef = 4;
  3751  04CC  3004               	movlw	4
  3752  04CD  00D9               	movwf	_fdef
  3753  04CE  3000               	movlw	0
  3754  04CF  00DA               	movwf	_fdef+1
  3755  04D0                     l1785:	
  3756                           
  3757                           ;7seglibmain.h: 368: if(compnumb == 6.5)
  3758  04D0  30D0               	movlw	208
  3759  04D1  0647               	xorwf	print_sevenseg@compnumb+1,w
  3760  04D2  3040               	movlw	64
  3761  04D3  1903               	skipnz
  3762  04D4  0648               	xorwf	print_sevenseg@compnumb+2,w
  3763  04D5  0446               	iorwf	print_sevenseg@compnumb,w
  3764  04D6  1D03               	btfss	3,2
  3765  04D7  2CDC               	goto	l1789
  3766                           
  3767                           ;7seglibmain.h: 369: fdef = 5;
  3768  04D8  3005               	movlw	5
  3769  04D9  00D9               	movwf	_fdef
  3770  04DA  3000               	movlw	0
  3771  04DB  00DA               	movwf	_fdef+1
  3772  04DC                     l1789:	
  3773                           
  3774                           ;7seglibmain.h: 371: if(compnumb == 6.6)
  3775  04DC  3033               	movlw	51
  3776  04DD  0646               	xorwf	print_sevenseg@compnumb,w
  3777  04DE  30D3               	movlw	211
  3778  04DF  1903               	skipnz
  3779  04E0  0647               	xorwf	print_sevenseg@compnumb+1,w
  3780  04E1  3040               	movlw	64
  3781  04E2  1903               	skipnz
  3782  04E3  0648               	xorwf	print_sevenseg@compnumb+2,w
  3783  04E4  1D03               	btfss	3,2
  3784  04E5  2CEA               	goto	l1793
  3785                           
  3786                           ;7seglibmain.h: 372: fdef = 6;
  3787  04E6  3006               	movlw	6
  3788  04E7  00D9               	movwf	_fdef
  3789  04E8  3000               	movlw	0
  3790  04E9  00DA               	movwf	_fdef+1
  3791  04EA                     l1793:	
  3792                           
  3793                           ;7seglibmain.h: 374: if(compnumb == 6.7)
  3794  04EA  3066               	movlw	102
  3795  04EB  0646               	xorwf	print_sevenseg@compnumb,w
  3796  04EC  30D6               	movlw	214
  3797  04ED  1903               	skipnz
  3798  04EE  0647               	xorwf	print_sevenseg@compnumb+1,w
  3799  04EF  3040               	movlw	64
  3800  04F0  1903               	skipnz
  3801  04F1  0648               	xorwf	print_sevenseg@compnumb+2,w
  3802  04F2  1D03               	btfss	3,2
  3803  04F3  2CF8               	goto	l1797
  3804                           
  3805                           ;7seglibmain.h: 375: fdef = 7;
  3806  04F4  3007               	movlw	7
  3807  04F5  00D9               	movwf	_fdef
  3808  04F6  3000               	movlw	0
  3809  04F7  00DA               	movwf	_fdef+1
  3810  04F8                     l1797:	
  3811                           
  3812                           ;7seglibmain.h: 377: if(compnumb == 6.8)
  3813  04F8  309A               	movlw	154
  3814  04F9  0646               	xorwf	print_sevenseg@compnumb,w
  3815  04FA  30D9               	movlw	217
  3816  04FB  1903               	skipnz
  3817  04FC  0647               	xorwf	print_sevenseg@compnumb+1,w
  3818  04FD  3040               	movlw	64
  3819  04FE  1903               	skipnz
  3820  04FF  0648               	xorwf	print_sevenseg@compnumb+2,w
  3821  0500  1D03               	btfss	3,2
  3822  0501  2D06               	goto	l1801
  3823                           
  3824                           ;7seglibmain.h: 378: fdef = 8;
  3825  0502  3008               	movlw	8
  3826  0503  00D9               	movwf	_fdef
  3827  0504  3000               	movlw	0
  3828  0505  00DA               	movwf	_fdef+1
  3829  0506                     l1801:	
  3830                           
  3831                           ;7seglibmain.h: 380: if(compnumb == 6.9)
  3832  0506  30CD               	movlw	205
  3833  0507  0646               	xorwf	print_sevenseg@compnumb,w
  3834  0508  30DC               	movlw	220
  3835  0509  1903               	skipnz
  3836  050A  0647               	xorwf	print_sevenseg@compnumb+1,w
  3837  050B  3040               	movlw	64
  3838  050C  1903               	skipnz
  3839  050D  0648               	xorwf	print_sevenseg@compnumb+2,w
  3840  050E  1D03               	btfss	3,2
  3841  050F  2D14               	goto	l141
  3842                           
  3843                           ;7seglibmain.h: 381: fdef = 9;
  3844  0510  3009               	movlw	9
  3845  0511  00D9               	movwf	_fdef
  3846  0512  3000               	movlw	0
  3847  0513  00DA               	movwf	_fdef+1
  3848  0514                     l141:	
  3849                           
  3850                           ;7seglibmain.h: 383: SETport[0] = numlib[16];
  3851  0514  1683               	bsf	3,5	;RP0=1, select bank1
  3852  0515  1303               	bcf	3,6	;RP1=0, select bank1
  3853  0516  0861               	movf	((_numlib+1)^(0+128)+64),w
  3854  0517  1283               	bcf	3,5	;RP0=0, select bank0
  3855  0518  1303               	bcf	3,6	;RP1=0, select bank0
  3856  0519  00D8               	movwf	_SETport+1
  3857  051A  1683               	bsf	3,5	;RP0=1, select bank1
  3858  051B  1303               	bcf	3,6	;RP1=0, select bank1
  3859  051C  0860               	movf	(_numlib^(0+128)+64),w
  3860  051D  1283               	bcf	3,5	;RP0=0, select bank0
  3861  051E  1303               	bcf	3,6	;RP1=0, select bank0
  3862  051F  00D7               	movwf	_SETport
  3863                           
  3864                           ;7seglibmain.h: 384: SETport[1] = numlib[fdef];
  3865  0520  0859               	movf	_fdef,w
  3866  0521  00CB               	movwf	??_print_sevenseg
  3867  0522  3001               	movlw	1
  3868  0523                     u3665:	
  3869  0523  1003               	clrc
  3870  0524  0DCB               	rlf	??_print_sevenseg,f
  3871  0525  3EFF               	addlw	-1
  3872  0526  1D03               	skipz
  3873  0527  2D23               	goto	u3665
  3874  0528  1003               	clrc
  3875  0529  0D4B               	rlf	??_print_sevenseg,w
  3876  052A  3EA0               	addlw	(low (_numlib| 0))& (0+255)
  3877  052B  0084               	movwf	4
  3878  052C  1383               	bcf	3,7	;select IRP bank1
  3879  052D  0800               	movf	0,w
  3880  052E  00D9               	movwf	_SETport+2
  3881  052F  0A84               	incf	4,f
  3882  0530  0800               	movf	0,w
  3883  0531  00DA               	movwf	_SETport+3
  3884  0532                     l1807:	
  3885                           
  3886                           ;7seglibmain.h: 385: }
  3887                           ;7seglibmain.h: 387: if((compnumb <= 7.9) && (compnumb > 6.9))
  3888  0532  30CD               	movlw	205
  3889  0533  00F0               	movwf	___ftge@ff1
  3890  0534  30FC               	movlw	252
  3891  0535  00F1               	movwf	___ftge@ff1+1
  3892  0536  3040               	movlw	64
  3893  0537  00F2               	movwf	___ftge@ff1+2
  3894  0538  1283               	bcf	3,5	;RP0=0, select bank0
  3895  0539  1303               	bcf	3,6	;RP1=0, select bank0
  3896  053A  0846               	movf	print_sevenseg@compnumb,w
  3897  053B  00F3               	movwf	___ftge@ff2
  3898  053C  0847               	movf	print_sevenseg@compnumb+1,w
  3899  053D  00F4               	movwf	___ftge@ff2+1
  3900  053E  0848               	movf	print_sevenseg@compnumb+2,w
  3901  053F  00F5               	movwf	___ftge@ff2+2
  3902  0540  120A  118A  200B  120A  118A  	fcall	___ftge
  3903  0545  1C03               	btfss	3,0
  3904  0546  2E02               	goto	l1853
  3905  0547  30CD               	movlw	205
  3906  0548  00F0               	movwf	___ftge@ff1
  3907  0549  30DC               	movlw	220
  3908  054A  00F1               	movwf	___ftge@ff1+1
  3909  054B  3040               	movlw	64
  3910  054C  00F2               	movwf	___ftge@ff1+2
  3911  054D  1283               	bcf	3,5	;RP0=0, select bank0
  3912  054E  1303               	bcf	3,6	;RP1=0, select bank0
  3913  054F  0846               	movf	print_sevenseg@compnumb,w
  3914  0550  00F3               	movwf	___ftge@ff2
  3915  0551  0847               	movf	print_sevenseg@compnumb+1,w
  3916  0552  00F4               	movwf	___ftge@ff2+1
  3917  0553  0848               	movf	print_sevenseg@compnumb+2,w
  3918  0554  00F5               	movwf	___ftge@ff2+2
  3919  0555  120A  118A  200B  120A  118A  	fcall	___ftge
  3920  055A  1803               	btfsc	3,0
  3921  055B  2E02               	goto	l1853
  3922                           
  3923                           ;7seglibmain.h: 388: {
  3924                           ;7seglibmain.h: 389: if(compnumb == 7.0)
  3925  055C  30E0               	movlw	224
  3926  055D  1283               	bcf	3,5	;RP0=0, select bank0
  3927  055E  1303               	bcf	3,6	;RP1=0, select bank0
  3928  055F  0647               	xorwf	print_sevenseg@compnumb+1,w
  3929  0560  3040               	movlw	64
  3930  0561  1903               	skipnz
  3931  0562  0648               	xorwf	print_sevenseg@compnumb+2,w
  3932  0563  0446               	iorwf	print_sevenseg@compnumb,w
  3933  0564  1D03               	btfss	3,2
  3934  0565  2D68               	goto	l1815
  3935                           
  3936                           ;7seglibmain.h: 390: fdef = 0;
  3937  0566  01D9               	clrf	_fdef
  3938  0567  01DA               	clrf	_fdef+1
  3939  0568                     l1815:	
  3940                           
  3941                           ;7seglibmain.h: 392: if(compnumb == 7.1)
  3942  0568  3033               	movlw	51
  3943  0569  0646               	xorwf	print_sevenseg@compnumb,w
  3944  056A  30E3               	movlw	227
  3945  056B  1903               	skipnz
  3946  056C  0647               	xorwf	print_sevenseg@compnumb+1,w
  3947  056D  3040               	movlw	64
  3948  056E  1903               	skipnz
  3949  056F  0648               	xorwf	print_sevenseg@compnumb+2,w
  3950  0570  1D03               	btfss	3,2
  3951  0571  2D76               	goto	l1819
  3952                           
  3953                           ;7seglibmain.h: 393: fdef = 1;
  3954  0572  3001               	movlw	1
  3955  0573  00D9               	movwf	_fdef
  3956  0574  3000               	movlw	0
  3957  0575  00DA               	movwf	_fdef+1
  3958  0576                     l1819:	
  3959                           
  3960                           ;7seglibmain.h: 395: if(compnumb == 7.2)
  3961  0576  3066               	movlw	102
  3962  0577  0646               	xorwf	print_sevenseg@compnumb,w
  3963  0578  30E6               	movlw	230
  3964  0579  1903               	skipnz
  3965  057A  0647               	xorwf	print_sevenseg@compnumb+1,w
  3966  057B  3040               	movlw	64
  3967  057C  1903               	skipnz
  3968  057D  0648               	xorwf	print_sevenseg@compnumb+2,w
  3969  057E  1D03               	btfss	3,2
  3970  057F  2D84               	goto	l1823
  3971                           
  3972                           ;7seglibmain.h: 396: fdef = 2;
  3973  0580  3002               	movlw	2
  3974  0581  00D9               	movwf	_fdef
  3975  0582  3000               	movlw	0
  3976  0583  00DA               	movwf	_fdef+1
  3977  0584                     l1823:	
  3978                           
  3979                           ;7seglibmain.h: 398: if(compnumb == 7.3)
  3980  0584  309A               	movlw	154
  3981  0585  0646               	xorwf	print_sevenseg@compnumb,w
  3982  0586  30E9               	movlw	233
  3983  0587  1903               	skipnz
  3984  0588  0647               	xorwf	print_sevenseg@compnumb+1,w
  3985  0589  3040               	movlw	64
  3986  058A  1903               	skipnz
  3987  058B  0648               	xorwf	print_sevenseg@compnumb+2,w
  3988  058C  1D03               	btfss	3,2
  3989  058D  2D92               	goto	l1827
  3990                           
  3991                           ;7seglibmain.h: 399: fdef = 3;
  3992  058E  3003               	movlw	3
  3993  058F  00D9               	movwf	_fdef
  3994  0590  3000               	movlw	0
  3995  0591  00DA               	movwf	_fdef+1
  3996  0592                     l1827:	
  3997                           
  3998                           ;7seglibmain.h: 401: if(compnumb == 7.4)
  3999  0592  30CD               	movlw	205
  4000  0593  0646               	xorwf	print_sevenseg@compnumb,w
  4001  0594  30EC               	movlw	236
  4002  0595  1903               	skipnz
  4003  0596  0647               	xorwf	print_sevenseg@compnumb+1,w
  4004  0597  3040               	movlw	64
  4005  0598  1903               	skipnz
  4006  0599  0648               	xorwf	print_sevenseg@compnumb+2,w
  4007  059A  1D03               	btfss	3,2
  4008  059B  2DA0               	goto	l1831
  4009                           
  4010                           ;7seglibmain.h: 402: fdef = 4;
  4011  059C  3004               	movlw	4
  4012  059D  00D9               	movwf	_fdef
  4013  059E  3000               	movlw	0
  4014  059F  00DA               	movwf	_fdef+1
  4015  05A0                     l1831:	
  4016                           
  4017                           ;7seglibmain.h: 404: if(compnumb == 7.5)
  4018  05A0  30F0               	movlw	240
  4019  05A1  0647               	xorwf	print_sevenseg@compnumb+1,w
  4020  05A2  3040               	movlw	64
  4021  05A3  1903               	skipnz
  4022  05A4  0648               	xorwf	print_sevenseg@compnumb+2,w
  4023  05A5  0446               	iorwf	print_sevenseg@compnumb,w
  4024  05A6  1D03               	btfss	3,2
  4025  05A7  2DAC               	goto	l1835
  4026                           
  4027                           ;7seglibmain.h: 405: fdef = 5;
  4028  05A8  3005               	movlw	5
  4029  05A9  00D9               	movwf	_fdef
  4030  05AA  3000               	movlw	0
  4031  05AB  00DA               	movwf	_fdef+1
  4032  05AC                     l1835:	
  4033                           
  4034                           ;7seglibmain.h: 407: if(compnumb == 7.6)
  4035  05AC  3033               	movlw	51
  4036  05AD  0646               	xorwf	print_sevenseg@compnumb,w
  4037  05AE  30F3               	movlw	243
  4038  05AF  1903               	skipnz
  4039  05B0  0647               	xorwf	print_sevenseg@compnumb+1,w
  4040  05B1  3040               	movlw	64
  4041  05B2  1903               	skipnz
  4042  05B3  0648               	xorwf	print_sevenseg@compnumb+2,w
  4043  05B4  1D03               	btfss	3,2
  4044  05B5  2DBA               	goto	l1839
  4045                           
  4046                           ;7seglibmain.h: 408: fdef = 6;
  4047  05B6  3006               	movlw	6
  4048  05B7  00D9               	movwf	_fdef
  4049  05B8  3000               	movlw	0
  4050  05B9  00DA               	movwf	_fdef+1
  4051  05BA                     l1839:	
  4052                           
  4053                           ;7seglibmain.h: 410: if(compnumb == 7.7)
  4054  05BA  3066               	movlw	102
  4055  05BB  0646               	xorwf	print_sevenseg@compnumb,w
  4056  05BC  30F6               	movlw	246
  4057  05BD  1903               	skipnz
  4058  05BE  0647               	xorwf	print_sevenseg@compnumb+1,w
  4059  05BF  3040               	movlw	64
  4060  05C0  1903               	skipnz
  4061  05C1  0648               	xorwf	print_sevenseg@compnumb+2,w
  4062  05C2  1D03               	btfss	3,2
  4063  05C3  2DC8               	goto	l1843
  4064                           
  4065                           ;7seglibmain.h: 411: fdef = 7;
  4066  05C4  3007               	movlw	7
  4067  05C5  00D9               	movwf	_fdef
  4068  05C6  3000               	movlw	0
  4069  05C7  00DA               	movwf	_fdef+1
  4070  05C8                     l1843:	
  4071                           
  4072                           ;7seglibmain.h: 413: if(compnumb == 7.8)
  4073  05C8  309A               	movlw	154
  4074  05C9  0646               	xorwf	print_sevenseg@compnumb,w
  4075  05CA  30F9               	movlw	249
  4076  05CB  1903               	skipnz
  4077  05CC  0647               	xorwf	print_sevenseg@compnumb+1,w
  4078  05CD  3040               	movlw	64
  4079  05CE  1903               	skipnz
  4080  05CF  0648               	xorwf	print_sevenseg@compnumb+2,w
  4081  05D0  1D03               	btfss	3,2
  4082  05D1  2DD6               	goto	l1847
  4083                           
  4084                           ;7seglibmain.h: 414: fdef = 8;
  4085  05D2  3008               	movlw	8
  4086  05D3  00D9               	movwf	_fdef
  4087  05D4  3000               	movlw	0
  4088  05D5  00DA               	movwf	_fdef+1
  4089  05D6                     l1847:	
  4090                           
  4091                           ;7seglibmain.h: 416: if(compnumb == 7.9)
  4092  05D6  30CD               	movlw	205
  4093  05D7  0646               	xorwf	print_sevenseg@compnumb,w
  4094  05D8  30FC               	movlw	252
  4095  05D9  1903               	skipnz
  4096  05DA  0647               	xorwf	print_sevenseg@compnumb+1,w
  4097  05DB  3040               	movlw	64
  4098  05DC  1903               	skipnz
  4099  05DD  0648               	xorwf	print_sevenseg@compnumb+2,w
  4100  05DE  1D03               	btfss	3,2
  4101  05DF  2DE4               	goto	l152
  4102                           
  4103                           ;7seglibmain.h: 417: fdef = 9;
  4104  05E0  3009               	movlw	9
  4105  05E1  00D9               	movwf	_fdef
  4106  05E2  3000               	movlw	0
  4107  05E3  00DA               	movwf	_fdef+1
  4108  05E4                     l152:	
  4109                           
  4110                           ;7seglibmain.h: 419: SETport[0] = numlib[17];
  4111  05E4  1683               	bsf	3,5	;RP0=1, select bank1
  4112  05E5  1303               	bcf	3,6	;RP1=0, select bank1
  4113  05E6  0865               	movf	((_numlib+1)^(0+128)+68),w
  4114  05E7  1283               	bcf	3,5	;RP0=0, select bank0
  4115  05E8  1303               	bcf	3,6	;RP1=0, select bank0
  4116  05E9  00D8               	movwf	_SETport+1
  4117  05EA  1683               	bsf	3,5	;RP0=1, select bank1
  4118  05EB  1303               	bcf	3,6	;RP1=0, select bank1
  4119  05EC  0864               	movf	(_numlib^(0+128)+68),w
  4120  05ED  1283               	bcf	3,5	;RP0=0, select bank0
  4121  05EE  1303               	bcf	3,6	;RP1=0, select bank0
  4122  05EF  00D7               	movwf	_SETport
  4123                           
  4124                           ;7seglibmain.h: 420: SETport[1] = numlib[fdef];
  4125  05F0  0859               	movf	_fdef,w
  4126  05F1  00CB               	movwf	??_print_sevenseg
  4127  05F2  3001               	movlw	1
  4128  05F3                     u3795:	
  4129  05F3  1003               	clrc
  4130  05F4  0DCB               	rlf	??_print_sevenseg,f
  4131  05F5  3EFF               	addlw	-1
  4132  05F6  1D03               	skipz
  4133  05F7  2DF3               	goto	u3795
  4134  05F8  1003               	clrc
  4135  05F9  0D4B               	rlf	??_print_sevenseg,w
  4136  05FA  3EA0               	addlw	(low (_numlib| 0))& (0+255)
  4137  05FB  0084               	movwf	4
  4138  05FC  1383               	bcf	3,7	;select IRP bank1
  4139  05FD  0800               	movf	0,w
  4140  05FE  00D9               	movwf	_SETport+2
  4141  05FF  0A84               	incf	4,f
  4142  0600  0800               	movf	0,w
  4143  0601  00DA               	movwf	_SETport+3
  4144  0602                     l1853:	
  4145                           
  4146                           ;7seglibmain.h: 421: }
  4147                           ;7seglibmain.h: 423: if((compnumb <= 8.9) && (compnumb > 7.9))
  4148  0602  3066               	movlw	102
  4149  0603  00F0               	movwf	___ftge@ff1
  4150  0604  300E               	movlw	14
  4151  0605  00F1               	movwf	___ftge@ff1+1
  4152  0606  3041               	movlw	65
  4153  0607  00F2               	movwf	___ftge@ff1+2
  4154  0608  1283               	bcf	3,5	;RP0=0, select bank0
  4155  0609  1303               	bcf	3,6	;RP1=0, select bank0
  4156  060A  0846               	movf	print_sevenseg@compnumb,w
  4157  060B  00F3               	movwf	___ftge@ff2
  4158  060C  0847               	movf	print_sevenseg@compnumb+1,w
  4159  060D  00F4               	movwf	___ftge@ff2+1
  4160  060E  0848               	movf	print_sevenseg@compnumb+2,w
  4161  060F  00F5               	movwf	___ftge@ff2+2
  4162  0610  120A  118A  200B  120A  118A  	fcall	___ftge
  4163  0615  1C03               	btfss	3,0
  4164  0616  2ED0               	goto	l1899
  4165  0617  30CD               	movlw	205
  4166  0618  00F0               	movwf	___ftge@ff1
  4167  0619  30FC               	movlw	252
  4168  061A  00F1               	movwf	___ftge@ff1+1
  4169  061B  3040               	movlw	64
  4170  061C  00F2               	movwf	___ftge@ff1+2
  4171  061D  1283               	bcf	3,5	;RP0=0, select bank0
  4172  061E  1303               	bcf	3,6	;RP1=0, select bank0
  4173  061F  0846               	movf	print_sevenseg@compnumb,w
  4174  0620  00F3               	movwf	___ftge@ff2
  4175  0621  0847               	movf	print_sevenseg@compnumb+1,w
  4176  0622  00F4               	movwf	___ftge@ff2+1
  4177  0623  0848               	movf	print_sevenseg@compnumb+2,w
  4178  0624  00F5               	movwf	___ftge@ff2+2
  4179  0625  120A  118A  200B  120A  118A  	fcall	___ftge
  4180  062A  1803               	btfsc	3,0
  4181  062B  2ED0               	goto	l1899
  4182                           
  4183                           ;7seglibmain.h: 424: {
  4184                           ;7seglibmain.h: 425: if(compnumb == 8.0)
  4185  062C  3041               	movlw	65
  4186  062D  1283               	bcf	3,5	;RP0=0, select bank0
  4187  062E  1303               	bcf	3,6	;RP1=0, select bank0
  4188  062F  0648               	xorwf	print_sevenseg@compnumb+2,w
  4189  0630  0446               	iorwf	print_sevenseg@compnumb,w
  4190  0631  0447               	iorwf	print_sevenseg@compnumb+1,w
  4191  0632  1D03               	btfss	3,2
  4192  0633  2E36               	goto	l1861
  4193                           
  4194                           ;7seglibmain.h: 426: fdef = 0;
  4195  0634  01D9               	clrf	_fdef
  4196  0635  01DA               	clrf	_fdef+1
  4197  0636                     l1861:	
  4198                           
  4199                           ;7seglibmain.h: 428: if(compnumb == 8.1)
  4200  0636  309A               	movlw	154
  4201  0637  0646               	xorwf	print_sevenseg@compnumb,w
  4202  0638  1D03               	skipz
  4203  0639  2E44               	goto	l1865
  4204  063A  0347               	decf	print_sevenseg@compnumb+1,w
  4205  063B  3041               	movlw	65
  4206  063C  1903               	skipnz
  4207  063D  0648               	xorwf	print_sevenseg@compnumb+2,w
  4208  063E  1D03               	btfss	3,2
  4209  063F  2E44               	goto	l1865
  4210                           
  4211                           ;7seglibmain.h: 429: fdef = 1;
  4212  0640  3001               	movlw	1
  4213  0641  00D9               	movwf	_fdef
  4214  0642  3000               	movlw	0
  4215  0643  00DA               	movwf	_fdef+1
  4216  0644                     l1865:	
  4217                           
  4218                           ;7seglibmain.h: 431: if(compnumb == 8.2)
  4219  0644  3033               	movlw	51
  4220  0645  0646               	xorwf	print_sevenseg@compnumb,w
  4221  0646  3003               	movlw	3
  4222  0647  1903               	skipnz
  4223  0648  0647               	xorwf	print_sevenseg@compnumb+1,w
  4224  0649  3041               	movlw	65
  4225  064A  1903               	skipnz
  4226  064B  0648               	xorwf	print_sevenseg@compnumb+2,w
  4227  064C  1D03               	btfss	3,2
  4228  064D  2E52               	goto	l1869
  4229                           
  4230                           ;7seglibmain.h: 432: fdef = 2;
  4231  064E  3002               	movlw	2
  4232  064F  00D9               	movwf	_fdef
  4233  0650  3000               	movlw	0
  4234  0651  00DA               	movwf	_fdef+1
  4235  0652                     l1869:	
  4236                           
  4237                           ;7seglibmain.h: 434: if(compnumb == 8.3)
  4238  0652  30CD               	movlw	205
  4239  0653  0646               	xorwf	print_sevenseg@compnumb,w
  4240  0654  3004               	movlw	4
  4241  0655  1903               	skipnz
  4242  0656  0647               	xorwf	print_sevenseg@compnumb+1,w
  4243  0657  3041               	movlw	65
  4244  0658  1903               	skipnz
  4245  0659  0648               	xorwf	print_sevenseg@compnumb+2,w
  4246  065A  1D03               	btfss	3,2
  4247  065B  2E60               	goto	l1873
  4248                           
  4249                           ;7seglibmain.h: 435: fdef = 3;
  4250  065C  3003               	movlw	3
  4251  065D  00D9               	movwf	_fdef
  4252  065E  3000               	movlw	0
  4253  065F  00DA               	movwf	_fdef+1
  4254  0660                     l1873:	
  4255                           
  4256                           ;7seglibmain.h: 437: if(compnumb == 8.4)
  4257  0660  3066               	movlw	102
  4258  0661  0646               	xorwf	print_sevenseg@compnumb,w
  4259  0662  3006               	movlw	6
  4260  0663  1903               	skipnz
  4261  0664  0647               	xorwf	print_sevenseg@compnumb+1,w
  4262  0665  3041               	movlw	65
  4263  0666  1903               	skipnz
  4264  0667  0648               	xorwf	print_sevenseg@compnumb+2,w
  4265  0668  1D03               	btfss	3,2
  4266  0669  2E6E               	goto	l1877
  4267                           
  4268                           ;7seglibmain.h: 438: fdef = 4;
  4269  066A  3004               	movlw	4
  4270  066B  00D9               	movwf	_fdef
  4271  066C  3000               	movlw	0
  4272  066D  00DA               	movwf	_fdef+1
  4273  066E                     l1877:	
  4274                           
  4275                           ;7seglibmain.h: 440: if(compnumb == 8.5)
  4276  066E  3008               	movlw	8
  4277  066F  0647               	xorwf	print_sevenseg@compnumb+1,w
  4278  0670  3041               	movlw	65
  4279  0671  1903               	skipnz
  4280  0672  0648               	xorwf	print_sevenseg@compnumb+2,w
  4281  0673  0446               	iorwf	print_sevenseg@compnumb,w
  4282  0674  1D03               	btfss	3,2
  4283  0675  2E7A               	goto	l1881
  4284                           
  4285                           ;7seglibmain.h: 441: fdef = 5;
  4286  0676  3005               	movlw	5
  4287  0677  00D9               	movwf	_fdef
  4288  0678  3000               	movlw	0
  4289  0679  00DA               	movwf	_fdef+1
  4290  067A                     l1881:	
  4291                           
  4292                           ;7seglibmain.h: 443: if(compnumb == 8.6)
  4293  067A  309A               	movlw	154
  4294  067B  0646               	xorwf	print_sevenseg@compnumb,w
  4295  067C  3009               	movlw	9
  4296  067D  1903               	skipnz
  4297  067E  0647               	xorwf	print_sevenseg@compnumb+1,w
  4298  067F  3041               	movlw	65
  4299  0680  1903               	skipnz
  4300  0681  0648               	xorwf	print_sevenseg@compnumb+2,w
  4301  0682  1D03               	btfss	3,2
  4302  0683  2E88               	goto	l1885
  4303                           
  4304                           ;7seglibmain.h: 444: fdef = 6;
  4305  0684  3006               	movlw	6
  4306  0685  00D9               	movwf	_fdef
  4307  0686  3000               	movlw	0
  4308  0687  00DA               	movwf	_fdef+1
  4309  0688                     l1885:	
  4310                           
  4311                           ;7seglibmain.h: 446: if(compnumb == 8.7)
  4312  0688  3033               	movlw	51
  4313  0689  0646               	xorwf	print_sevenseg@compnumb,w
  4314  068A  300B               	movlw	11
  4315  068B  1903               	skipnz
  4316  068C  0647               	xorwf	print_sevenseg@compnumb+1,w
  4317  068D  3041               	movlw	65
  4318  068E  1903               	skipnz
  4319  068F  0648               	xorwf	print_sevenseg@compnumb+2,w
  4320  0690  1D03               	btfss	3,2
  4321  0691  2E96               	goto	l1889
  4322                           
  4323                           ;7seglibmain.h: 447: fdef = 7;
  4324  0692  3007               	movlw	7
  4325  0693  00D9               	movwf	_fdef
  4326  0694  3000               	movlw	0
  4327  0695  00DA               	movwf	_fdef+1
  4328  0696                     l1889:	
  4329                           
  4330                           ;7seglibmain.h: 449: if(compnumb == 8.8)
  4331  0696  30CD               	movlw	205
  4332  0697  0646               	xorwf	print_sevenseg@compnumb,w
  4333  0698  300C               	movlw	12
  4334  0699  1903               	skipnz
  4335  069A  0647               	xorwf	print_sevenseg@compnumb+1,w
  4336  069B  3041               	movlw	65
  4337  069C  1903               	skipnz
  4338  069D  0648               	xorwf	print_sevenseg@compnumb+2,w
  4339  069E  1D03               	btfss	3,2
  4340  069F  2EA4               	goto	l1893
  4341                           
  4342                           ;7seglibmain.h: 450: fdef = 8;
  4343  06A0  3008               	movlw	8
  4344  06A1  00D9               	movwf	_fdef
  4345  06A2  3000               	movlw	0
  4346  06A3  00DA               	movwf	_fdef+1
  4347  06A4                     l1893:	
  4348                           
  4349                           ;7seglibmain.h: 452: if(compnumb == 8.9)
  4350  06A4  3066               	movlw	102
  4351  06A5  0646               	xorwf	print_sevenseg@compnumb,w
  4352  06A6  300E               	movlw	14
  4353  06A7  1903               	skipnz
  4354  06A8  0647               	xorwf	print_sevenseg@compnumb+1,w
  4355  06A9  3041               	movlw	65
  4356  06AA  1903               	skipnz
  4357  06AB  0648               	xorwf	print_sevenseg@compnumb+2,w
  4358  06AC  1D03               	btfss	3,2
  4359  06AD  2EB2               	goto	l163
  4360                           
  4361                           ;7seglibmain.h: 453: fdef = 9;
  4362  06AE  3009               	movlw	9
  4363  06AF  00D9               	movwf	_fdef
  4364  06B0  3000               	movlw	0
  4365  06B1  00DA               	movwf	_fdef+1
  4366  06B2                     l163:	
  4367                           
  4368                           ;7seglibmain.h: 455: SETport[0] = numlib[18];
  4369  06B2  1683               	bsf	3,5	;RP0=1, select bank1
  4370  06B3  1303               	bcf	3,6	;RP1=0, select bank1
  4371  06B4  0869               	movf	((_numlib+1)^(0+128)+72),w
  4372  06B5  1283               	bcf	3,5	;RP0=0, select bank0
  4373  06B6  1303               	bcf	3,6	;RP1=0, select bank0
  4374  06B7  00D8               	movwf	_SETport+1
  4375  06B8  1683               	bsf	3,5	;RP0=1, select bank1
  4376  06B9  1303               	bcf	3,6	;RP1=0, select bank1
  4377  06BA  0868               	movf	(_numlib^(0+128)+72),w
  4378  06BB  1283               	bcf	3,5	;RP0=0, select bank0
  4379  06BC  1303               	bcf	3,6	;RP1=0, select bank0
  4380  06BD  00D7               	movwf	_SETport
  4381                           
  4382                           ;7seglibmain.h: 456: SETport[1] = numlib[fdef];
  4383  06BE  0859               	movf	_fdef,w
  4384  06BF  00CB               	movwf	??_print_sevenseg
  4385  06C0  3001               	movlw	1
  4386  06C1                     u3925:	
  4387  06C1  1003               	clrc
  4388  06C2  0DCB               	rlf	??_print_sevenseg,f
  4389  06C3  3EFF               	addlw	-1
  4390  06C4  1D03               	skipz
  4391  06C5  2EC1               	goto	u3925
  4392  06C6  1003               	clrc
  4393  06C7  0D4B               	rlf	??_print_sevenseg,w
  4394  06C8  3EA0               	addlw	(low (_numlib| 0))& (0+255)
  4395  06C9  0084               	movwf	4
  4396  06CA  1383               	bcf	3,7	;select IRP bank1
  4397  06CB  0800               	movf	0,w
  4398  06CC  00D9               	movwf	_SETport+2
  4399  06CD  0A84               	incf	4,f
  4400  06CE  0800               	movf	0,w
  4401  06CF  00DA               	movwf	_SETport+3
  4402  06D0                     l1899:	
  4403                           
  4404                           ;7seglibmain.h: 457: }
  4405                           ;7seglibmain.h: 459: if((compnumb <= 9.9) && (compnumb > 8.9))
  4406  06D0  3066               	movlw	102
  4407  06D1  00F0               	movwf	___ftge@ff1
  4408  06D2  301E               	movlw	30
  4409  06D3  00F1               	movwf	___ftge@ff1+1
  4410  06D4  3041               	movlw	65
  4411  06D5  00F2               	movwf	___ftge@ff1+2
  4412  06D6  1283               	bcf	3,5	;RP0=0, select bank0
  4413  06D7  1303               	bcf	3,6	;RP1=0, select bank0
  4414  06D8  0846               	movf	print_sevenseg@compnumb,w
  4415  06D9  00F3               	movwf	___ftge@ff2
  4416  06DA  0847               	movf	print_sevenseg@compnumb+1,w
  4417  06DB  00F4               	movwf	___ftge@ff2+1
  4418  06DC  0848               	movf	print_sevenseg@compnumb+2,w
  4419  06DD  00F5               	movwf	___ftge@ff2+2
  4420  06DE  120A  118A  200B  120A  118A  	fcall	___ftge
  4421  06E3  1C03               	btfss	3,0
  4422  06E4  2FA0               	goto	l1945
  4423  06E5  3066               	movlw	102
  4424  06E6  00F0               	movwf	___ftge@ff1
  4425  06E7  300E               	movlw	14
  4426  06E8  00F1               	movwf	___ftge@ff1+1
  4427  06E9  3041               	movlw	65
  4428  06EA  00F2               	movwf	___ftge@ff1+2
  4429  06EB  1283               	bcf	3,5	;RP0=0, select bank0
  4430  06EC  1303               	bcf	3,6	;RP1=0, select bank0
  4431  06ED  0846               	movf	print_sevenseg@compnumb,w
  4432  06EE  00F3               	movwf	___ftge@ff2
  4433  06EF  0847               	movf	print_sevenseg@compnumb+1,w
  4434  06F0  00F4               	movwf	___ftge@ff2+1
  4435  06F1  0848               	movf	print_sevenseg@compnumb+2,w
  4436  06F2  00F5               	movwf	___ftge@ff2+2
  4437  06F3  120A  118A  200B  120A  118A  	fcall	___ftge
  4438  06F8  1803               	btfsc	3,0
  4439  06F9  2FA0               	goto	l1945
  4440                           
  4441                           ;7seglibmain.h: 460: {
  4442                           ;7seglibmain.h: 461: if(compnumb == 9.0)
  4443  06FA  3010               	movlw	16
  4444  06FB  1283               	bcf	3,5	;RP0=0, select bank0
  4445  06FC  1303               	bcf	3,6	;RP1=0, select bank0
  4446  06FD  0647               	xorwf	print_sevenseg@compnumb+1,w
  4447  06FE  3041               	movlw	65
  4448  06FF  1903               	skipnz
  4449  0700  0648               	xorwf	print_sevenseg@compnumb+2,w
  4450  0701  0446               	iorwf	print_sevenseg@compnumb,w
  4451  0702  1D03               	btfss	3,2
  4452  0703  2F06               	goto	l1907
  4453                           
  4454                           ;7seglibmain.h: 462: fdef = 0;
  4455  0704  01D9               	clrf	_fdef
  4456  0705  01DA               	clrf	_fdef+1
  4457  0706                     l1907:	
  4458                           
  4459                           ;7seglibmain.h: 464: if(compnumb == 9.1)
  4460  0706  309A               	movlw	154
  4461  0707  0646               	xorwf	print_sevenseg@compnumb,w
  4462  0708  3011               	movlw	17
  4463  0709  1903               	skipnz
  4464  070A  0647               	xorwf	print_sevenseg@compnumb+1,w
  4465  070B  3041               	movlw	65
  4466  070C  1903               	skipnz
  4467  070D  0648               	xorwf	print_sevenseg@compnumb+2,w
  4468  070E  1D03               	btfss	3,2
  4469  070F  2F14               	goto	l1911
  4470                           
  4471                           ;7seglibmain.h: 465: fdef = 1;
  4472  0710  3001               	movlw	1
  4473  0711  00D9               	movwf	_fdef
  4474  0712  3000               	movlw	0
  4475  0713  00DA               	movwf	_fdef+1
  4476  0714                     l1911:	
  4477                           
  4478                           ;7seglibmain.h: 467: if(compnumb == 9.2)
  4479  0714  3033               	movlw	51
  4480  0715  0646               	xorwf	print_sevenseg@compnumb,w
  4481  0716  3013               	movlw	19
  4482  0717  1903               	skipnz
  4483  0718  0647               	xorwf	print_sevenseg@compnumb+1,w
  4484  0719  3041               	movlw	65
  4485  071A  1903               	skipnz
  4486  071B  0648               	xorwf	print_sevenseg@compnumb+2,w
  4487  071C  1D03               	btfss	3,2
  4488  071D  2F22               	goto	l1915
  4489                           
  4490                           ;7seglibmain.h: 468: fdef = 2;
  4491  071E  3002               	movlw	2
  4492  071F  00D9               	movwf	_fdef
  4493  0720  3000               	movlw	0
  4494  0721  00DA               	movwf	_fdef+1
  4495  0722                     l1915:	
  4496                           
  4497                           ;7seglibmain.h: 470: if(compnumb == 9.3)
  4498  0722  30CD               	movlw	205
  4499  0723  0646               	xorwf	print_sevenseg@compnumb,w
  4500  0724  3014               	movlw	20
  4501  0725  1903               	skipnz
  4502  0726  0647               	xorwf	print_sevenseg@compnumb+1,w
  4503  0727  3041               	movlw	65
  4504  0728  1903               	skipnz
  4505  0729  0648               	xorwf	print_sevenseg@compnumb+2,w
  4506  072A  1D03               	btfss	3,2
  4507  072B  2F30               	goto	l1919
  4508                           
  4509                           ;7seglibmain.h: 471: fdef = 3;
  4510  072C  3003               	movlw	3
  4511  072D  00D9               	movwf	_fdef
  4512  072E  3000               	movlw	0
  4513  072F  00DA               	movwf	_fdef+1
  4514  0730                     l1919:	
  4515                           
  4516                           ;7seglibmain.h: 473: if(compnumb == 9.4)
  4517  0730  3066               	movlw	102
  4518  0731  0646               	xorwf	print_sevenseg@compnumb,w
  4519  0732  3016               	movlw	22
  4520  0733  1903               	skipnz
  4521  0734  0647               	xorwf	print_sevenseg@compnumb+1,w
  4522  0735  3041               	movlw	65
  4523  0736  1903               	skipnz
  4524  0737  0648               	xorwf	print_sevenseg@compnumb+2,w
  4525  0738  1D03               	btfss	3,2
  4526  0739  2F3E               	goto	l1923
  4527                           
  4528                           ;7seglibmain.h: 474: fdef = 4;
  4529  073A  3004               	movlw	4
  4530  073B  00D9               	movwf	_fdef
  4531  073C  3000               	movlw	0
  4532  073D  00DA               	movwf	_fdef+1
  4533  073E                     l1923:	
  4534                           
  4535                           ;7seglibmain.h: 476: if(compnumb == 9.5)
  4536  073E  3018               	movlw	24
  4537  073F  0647               	xorwf	print_sevenseg@compnumb+1,w
  4538  0740  3041               	movlw	65
  4539  0741  1903               	skipnz
  4540  0742  0648               	xorwf	print_sevenseg@compnumb+2,w
  4541  0743  0446               	iorwf	print_sevenseg@compnumb,w
  4542  0744  1D03               	btfss	3,2
  4543  0745  2F4A               	goto	l1927
  4544                           
  4545                           ;7seglibmain.h: 477: fdef = 5;
  4546  0746  3005               	movlw	5
  4547  0747  00D9               	movwf	_fdef
  4548  0748  3000               	movlw	0
  4549  0749  00DA               	movwf	_fdef+1
  4550  074A                     l1927:	
  4551                           
  4552                           ;7seglibmain.h: 479: if(compnumb == 9.6)
  4553  074A  309A               	movlw	154
  4554  074B  0646               	xorwf	print_sevenseg@compnumb,w
  4555  074C  3019               	movlw	25
  4556  074D  1903               	skipnz
  4557  074E  0647               	xorwf	print_sevenseg@compnumb+1,w
  4558  074F  3041               	movlw	65
  4559  0750  1903               	skipnz
  4560  0751  0648               	xorwf	print_sevenseg@compnumb+2,w
  4561  0752  1D03               	btfss	3,2
  4562  0753  2F58               	goto	l1931
  4563                           
  4564                           ;7seglibmain.h: 480: fdef = 6;
  4565  0754  3006               	movlw	6
  4566  0755  00D9               	movwf	_fdef
  4567  0756  3000               	movlw	0
  4568  0757  00DA               	movwf	_fdef+1
  4569  0758                     l1931:	
  4570                           
  4571                           ;7seglibmain.h: 482: if(compnumb == 9.7)
  4572  0758  3033               	movlw	51
  4573  0759  0646               	xorwf	print_sevenseg@compnumb,w
  4574  075A  301B               	movlw	27
  4575  075B  1903               	skipnz
  4576  075C  0647               	xorwf	print_sevenseg@compnumb+1,w
  4577  075D  3041               	movlw	65
  4578  075E  1903               	skipnz
  4579  075F  0648               	xorwf	print_sevenseg@compnumb+2,w
  4580  0760  1D03               	btfss	3,2
  4581  0761  2F66               	goto	l1935
  4582                           
  4583                           ;7seglibmain.h: 483: fdef = 7;
  4584  0762  3007               	movlw	7
  4585  0763  00D9               	movwf	_fdef
  4586  0764  3000               	movlw	0
  4587  0765  00DA               	movwf	_fdef+1
  4588  0766                     l1935:	
  4589                           
  4590                           ;7seglibmain.h: 485: if(compnumb == 9.8)
  4591  0766  30CD               	movlw	205
  4592  0767  0646               	xorwf	print_sevenseg@compnumb,w
  4593  0768  301C               	movlw	28
  4594  0769  1903               	skipnz
  4595  076A  0647               	xorwf	print_sevenseg@compnumb+1,w
  4596  076B  3041               	movlw	65
  4597  076C  1903               	skipnz
  4598  076D  0648               	xorwf	print_sevenseg@compnumb+2,w
  4599  076E  1D03               	btfss	3,2
  4600  076F  2F74               	goto	l1939
  4601                           
  4602                           ;7seglibmain.h: 486: fdef = 8;
  4603  0770  3008               	movlw	8
  4604  0771  00D9               	movwf	_fdef
  4605  0772  3000               	movlw	0
  4606  0773  00DA               	movwf	_fdef+1
  4607  0774                     l1939:	
  4608                           
  4609                           ;7seglibmain.h: 488: if(compnumb == 9.9)
  4610  0774  3066               	movlw	102
  4611  0775  0646               	xorwf	print_sevenseg@compnumb,w
  4612  0776  301E               	movlw	30
  4613  0777  1903               	skipnz
  4614  0778  0647               	xorwf	print_sevenseg@compnumb+1,w
  4615  0779  3041               	movlw	65
  4616  077A  1903               	skipnz
  4617  077B  0648               	xorwf	print_sevenseg@compnumb+2,w
  4618  077C  1D03               	btfss	3,2
  4619  077D  2F82               	goto	l174
  4620                           
  4621                           ;7seglibmain.h: 489: fdef = 9;
  4622  077E  3009               	movlw	9
  4623  077F  00D9               	movwf	_fdef
  4624  0780  3000               	movlw	0
  4625  0781  00DA               	movwf	_fdef+1
  4626  0782                     l174:	
  4627                           
  4628                           ;7seglibmain.h: 491: SETport[0] = numlib[19];
  4629  0782  1683               	bsf	3,5	;RP0=1, select bank1
  4630  0783  1303               	bcf	3,6	;RP1=0, select bank1
  4631  0784  086D               	movf	((_numlib+1)^(0+128)+76),w
  4632  0785  1283               	bcf	3,5	;RP0=0, select bank0
  4633  0786  1303               	bcf	3,6	;RP1=0, select bank0
  4634  0787  00D8               	movwf	_SETport+1
  4635  0788  1683               	bsf	3,5	;RP0=1, select bank1
  4636  0789  1303               	bcf	3,6	;RP1=0, select bank1
  4637  078A  086C               	movf	(_numlib^(0+128)+76),w
  4638  078B  1283               	bcf	3,5	;RP0=0, select bank0
  4639  078C  1303               	bcf	3,6	;RP1=0, select bank0
  4640  078D  00D7               	movwf	_SETport
  4641                           
  4642                           ;7seglibmain.h: 492: SETport[1] = numlib[fdef];
  4643  078E  0859               	movf	_fdef,w
  4644  078F  00CB               	movwf	??_print_sevenseg
  4645  0790  3001               	movlw	1
  4646  0791                     u4055:	
  4647  0791  1003               	clrc
  4648  0792  0DCB               	rlf	??_print_sevenseg,f
  4649  0793  3EFF               	addlw	-1
  4650  0794  1D03               	skipz
  4651  0795  2F91               	goto	u4055
  4652  0796  1003               	clrc
  4653  0797  0D4B               	rlf	??_print_sevenseg,w
  4654  0798  3EA0               	addlw	(low (_numlib| 0))& (0+255)
  4655  0799  0084               	movwf	4
  4656  079A  1383               	bcf	3,7	;select IRP bank1
  4657  079B  0800               	movf	0,w
  4658  079C  00D9               	movwf	_SETport+2
  4659  079D  0A84               	incf	4,f
  4660  079E  0800               	movf	0,w
  4661  079F  00DA               	movwf	_SETport+3
  4662  07A0                     l1945:	
  4663                           
  4664                           ;7seglibmain.h: 493: }
  4665                           ;7seglibmain.h: 495: if(port1 == "A")
  4666  07A0  1283               	bcf	3,5	;RP0=0, select bank0
  4667  07A1  1303               	bcf	3,6	;RP1=0, select bank0
  4668  07A2  0849               	movf	print_sevenseg@port1,w
  4669  07A3  3A01               	xorlw	(low ((STR_1-__stringbase)| (0+32768)))& (0+255)
  4670  07A4  1D03               	skipz
  4671  07A5  2FA8               	goto	l175
  4672                           
  4673                           ;7seglibmain.h: 496: PORTA = SETport[0];
  4674  07A6  0857               	movf	_SETport,w
  4675  07A7  0085               	movwf	5	;volatile
  4676  07A8                     l175:	
  4677                           
  4678                           ;7seglibmain.h: 498: if(port1 == "B")
  4679  07A8  0849               	movf	print_sevenseg@port1,w
  4680  07A9  3A03               	xorlw	(low ((STR_2-__stringbase)| (0+32768)))& (0+255)
  4681  07AA  1D03               	skipz
  4682  07AB  2FAE               	goto	l176
  4683                           
  4684                           ;7seglibmain.h: 499: PORTB = SETport[0];
  4685  07AC  0857               	movf	_SETport,w
  4686  07AD  0086               	movwf	6	;volatile
  4687  07AE                     l176:	
  4688                           
  4689                           ;7seglibmain.h: 501: if(port1 == "C")
  4690  07AE  0849               	movf	print_sevenseg@port1,w
  4691  07AF  3A05               	xorlw	(low ((STR_3-__stringbase)| (0+32768)))& (0+255)
  4692  07B0  1D03               	skipz
  4693  07B1  2FB4               	goto	l177
  4694                           
  4695                           ;7seglibmain.h: 502: PORTC = SETport[0];
  4696  07B2  0857               	movf	_SETport,w
  4697  07B3  0087               	movwf	7	;volatile
  4698  07B4                     l177:	
  4699                           
  4700                           ;7seglibmain.h: 504: if(port1 == "D")
  4701  07B4  0849               	movf	print_sevenseg@port1,w
  4702  07B5  3A07               	xorlw	(low ((STR_4-__stringbase)| (0+32768)))& (0+255)
  4703  07B6  1D03               	skipz
  4704  07B7  2FBA               	goto	l178
  4705                           
  4706                           ;7seglibmain.h: 505: PORTD = SETport[0];
  4707  07B8  0857               	movf	_SETport,w
  4708  07B9  0088               	movwf	8	;volatile
  4709  07BA                     l178:	
  4710                           
  4711                           ;7seglibmain.h: 507: if(port1 == "E")
  4712  07BA  0849               	movf	print_sevenseg@port1,w
  4713  07BB  3A09               	xorlw	(low ((STR_5-__stringbase)| (0+32768)))& (0+255)
  4714  07BC  1D03               	skipz
  4715  07BD  2FC0               	goto	l179
  4716                           
  4717                           ;7seglibmain.h: 508: PORTE = SETport[0];
  4718  07BE  0857               	movf	_SETport,w
  4719  07BF  0089               	movwf	9	;volatile
  4720  07C0                     l179:	
  4721                           
  4722                           ;7seglibmain.h: 510: if(port2 == "A")
  4723  07C0  084A               	movf	print_sevenseg@port2,w
  4724  07C1  3A01               	xorlw	(low ((STR_1-__stringbase)| (0+32768)))& (0+255)
  4725  07C2  1D03               	skipz
  4726  07C3  2FC6               	goto	l180
  4727                           
  4728                           ;7seglibmain.h: 511: PORTA = SETport[1];
  4729  07C4  0859               	movf	_SETport+2,w
  4730  07C5  0085               	movwf	5	;volatile
  4731  07C6                     l180:	
  4732                           
  4733                           ;7seglibmain.h: 513: if(port2 == "B")
  4734  07C6  084A               	movf	print_sevenseg@port2,w
  4735  07C7  3A03               	xorlw	(low ((STR_2-__stringbase)| (0+32768)))& (0+255)
  4736  07C8  1D03               	skipz
  4737  07C9  2FCC               	goto	l181
  4738                           
  4739                           ;7seglibmain.h: 514: PORTB = SETport[1];
  4740  07CA  0859               	movf	_SETport+2,w
  4741  07CB  0086               	movwf	6	;volatile
  4742  07CC                     l181:	
  4743                           
  4744                           ;7seglibmain.h: 516: if(port2 == "C")
  4745  07CC  084A               	movf	print_sevenseg@port2,w
  4746  07CD  3A05               	xorlw	(low ((STR_3-__stringbase)| (0+32768)))& (0+255)
  4747  07CE  1D03               	skipz
  4748  07CF  2FD2               	goto	l182
  4749                           
  4750                           ;7seglibmain.h: 517: PORTC = SETport[1];
  4751  07D0  0859               	movf	_SETport+2,w
  4752  07D1  0087               	movwf	7	;volatile
  4753  07D2                     l182:	
  4754                           
  4755                           ;7seglibmain.h: 519: if(port2 == "D")
  4756  07D2  084A               	movf	print_sevenseg@port2,w
  4757  07D3  3A07               	xorlw	(low ((STR_4-__stringbase)| (0+32768)))& (0+255)
  4758  07D4  1D03               	skipz
  4759  07D5  2FD8               	goto	l183
  4760                           
  4761                           ;7seglibmain.h: 520: PORTD = SETport[1];
  4762  07D6  0859               	movf	_SETport+2,w
  4763  07D7  0088               	movwf	8	;volatile
  4764  07D8                     l183:	
  4765                           
  4766                           ;7seglibmain.h: 522: if(port2 == "E")
  4767  07D8  084A               	movf	print_sevenseg@port2,w
  4768  07D9  3A09               	xorlw	(low ((STR_5-__stringbase)| (0+32768)))& (0+255)
  4769  07DA  1D03               	skipz
  4770  07DB  0008               	return
  4771                           
  4772                           ;7seglibmain.h: 523: PORTE = SETport[1];
  4773  07DC  0859               	movf	_SETport+2,w
  4774  07DD  0089               	movwf	9	;volatile
  4775                           
  4776                           ;7seglibmain.h: 525: else
  4777                           ;7seglibmain.h: 526: return;
  4778                           
  4779                           ;7seglibmain.h: 524: }
  4780  07DE  0008               	return
  4781  07DF                     __end_of_print_sevenseg:	


Data Sizes:
    Strings     10
    Constant    0
    Data        116
    BSS         4
    Persistent  0
    Stack       0

Auto Spaces:
    Space          Size  Autos    Used
    COMMON           14     14      14
    BANK0            80     19      59
    BANK1            80      0      80
    BANK3            96      0       0
    BANK2            96      0       0

Pointer List with Targets:

    print_sevenseg@port1	PTR unsigned char  size(1) Largest target is 2
		 -> STR_32(CODE[2]), NULL(NULL[0]), 

    print_sevenseg@port2	PTR unsigned char  size(1) Largest target is 2
		 -> STR_33(CODE[2]), STR_31(CODE[2]), 


Critical Paths under _main in COMMON

    _print_sevenseg->___ftge

Critical Paths under _main in BANK0

    _main->_print_sevenseg

Critical Paths under _main in BANK1

    None.

Critical Paths under _main in BANK3

    None.

Critical Paths under _main in BANK2

    None.

Call Graph Tables:

 ---------------------------------------------------------------------------------
 (Depth) Function   	        Calls       Base Space   Used Autos Params    Refs
 ---------------------------------------------------------------------------------
 (0) _main                                                 6     6      0    6692
                                             12 COMMON     2     2      0
                                             15 BANK0      4     4      0
                     _print_sevenseg
 ---------------------------------------------------------------------------------
 (1) _print_sevenseg                                      15     8      7    6578
                                              0 BANK0     15     8      7
                             ___ftge
 ---------------------------------------------------------------------------------
 (2) ___ftge                                              12     6      6    2150
                                              0 COMMON    12     6      6
 ---------------------------------------------------------------------------------
 Estimated maximum stack depth 2
 ---------------------------------------------------------------------------------

 Call Graph Graphs:

 _main (ROOT)
   _print_sevenseg
     ___ftge

 Address spaces:
Name               Size   Autos  Total    Cost      Usage
BANK3               60      0       0       9        0.0%
BITBANK3            60      0       0       8        0.0%
SFR3                 0      0       0       4        0.0%
BITSFR3              0      0       0       4        0.0%
BANK2               60      0       0      11        0.0%
BITBANK2            60      0       0      10        0.0%
SFR2                 0      0       0       5        0.0%
BITSFR2              0      0       0       5        0.0%
BANK1               50      0      50       7      100.0%
BITBANK1            50      0       0       6        0.0%
SFR1                 0      0       0       2        0.0%
BITSFR1              0      0       0       2        0.0%
BANK0               50     13      3B       5       73.8%
BITBANK0            50      0       0       4        0.0%
SFR0                 0      0       0       1        0.0%
BITSFR0              0      0       0       1        0.0%
COMMON               E      E       E       1      100.0%
BITCOMMON            E      0       0       0        0.0%
CODE                 0      0       0       0        0.0%
DATA                 0      0      99      12        0.0%
ABS                  0      0      99       3        0.0%
NULL                 0      0       0       0        0.0%
STACK                0      0       0       2        0.0%
EEDATA             100      0       0       0        0.0%


Microchip Technology PIC Macro Assembler V1.34 build -361300703 
Symbol Table                                                                                   Tue May 26 22:37:20 2015

                      pc 0002              __CFG_CP$OFF 0000          ?_print_sevenseg 0044  
                     l60 0FF0                       l61 0FF6                       l53 0FC6  
                     l54 0FCC                       l55 0FD2                       l56 0FD8  
                     l57 0FDE                       l58 0FE4                       l75 0C47  
                     l59 0FEA                       l86 0106                       l97 01D4  
                     fsr 0004                      l130 0444                      l108 02A4  
                    l141 0514                      l119 0374                      l152 05E4  
                    l163 06B2                      l180 07C6                      l181 07CC  
                    l182 07D2                      l174 0782                      l183 07D8  
                    l175 07A8                      l176 07AE                      l177 07B4  
                    l178 07BA                      l194 0B15                      l179 07C0  
           __CFG_CPD$OFF 0000                      fsr0 0004                      indf 0000  
           __CFG_FOSC$HS 0000             __CFG_LVP$OFF 0000                     l1501 0BE9  
                   l1421 0DAA                     l1335 0032                     l1415 0D51  
                   l1601 0190                     l1521 0C2B                     l1513 0C0F  
                   l1505 0BF7                     l1433 0E5C                     l1409 0CF8  
                   l1339 0059                     l1531 0C65                     l1451 0F67  
                   l1427 0E03                     l1701 034A                     l1613 01B8  
                   l1605 019C                     l1525 0C39                     l1517 0C1D  
                   l1509 0C05                     l1445 0F0E                     l1631 0228  
                   l1623 01F2                     l1551 00B4                     l1543 0098  
                   l1439 0EB5                     l1391 0B89                     l1383 0B63  
                   l1359 0B2D                     l1801 0506                     l1705 0358  
                   l1617 01C6                     l1609 01AA                     l1457 0FC0  
                   l1731 03E4                     l1723 03C8                     l1715 0392  
                   l1651 026C                     l1643 0252                     l1635 0236  
                   l1571 00F8                     l1563 00DC                     l1555 00C2  
                   l1547 00A6                     l1539 008A                     l1387 0B76  
                   l1379 0B50                     l1395 0C7D                     l1709 0366  
                   l1493 0BCD                     l1911 0714                     l1831 05A0  
                   l1823 0584                     l1815 0568                     l1807 0532  
                   l1751 0428                     l1743 040C                     l1735 03F2  
                   l1727 03D6                     l1663 0296                     l1655 027A  
                   l1647 0260                     l1639 0244                     l1567 00EA  
                   l1559 00CE                     l1479 0BA0                     l1761 0462  
                   l1681 0306                     l1593 0174                     l1585 0158  
                   l1577 0124                     l1497 0BDB                     l1931 0758  
                   l1923 073E                     l1915 0722                     l1907 0706  
                   l1843 05C8                     l1835 05AC                     l1827 0592  
                   l1819 0576                     l1755 0436                     l1747 041A  
                   l1739 0400                     l1659 0288                     l1861 0636  
                   l1853 0602                     l1781 04C2                     l1773 04A6  
                   l1693 0330                     l1685 0314                     l1677 02F8  
                   l1669 02C2                     l1597 0182                     l1589 0166  
                   l1935 0766                     l1927 074A                     l1919 0730  
                   l1847 05D6                     l1839 05BA                     l1945 07A0  
                   l1881 067A                     l1873 0660                     l1865 0644  
                   l1793 04EA                     l1785 04D0                     l1777 04B4  
                   l1769 0498                     l1697 033C                     l1689 0322  
                   l1939 0774                     l1893 06A4                     l1885 0688  
                   l1877 066E                     l1869 0652                     l1797 04F8  
                   l1789 04DC                     l1889 0696                     l1899 06D0  
                   l1987 0AB3                     STR_1 0806                     STR_2 0808  
                   STR_3 080A                     STR_4 080C                     STR_5 080E  
                   STR_6 0806                     STR_7 0808                     STR_8 080A  
                   STR_9 080C                     u2111 0025                     u2112 0026  
                   u2113 002B                     u2114 002C                     u2131 004C  
                   u2132 004D                     u2133 0052                     u2134 0053  
                   u3015 0115                     u2403 0D2F                     u2315 0B90  
                   u2235 0B44                     u2155 0B21                     u2420 0D70  
                   u2421 0D71                     u2325 0C88                     u2510 0E7B  
                   u2422 0D76                     u2511 0E7C                     u2423 0D77  
                   u2415 0D42                     u2335 0C95                     u2255 0B57  
                   u2600 0F86                     u2512 0E81                     u2360 0CBE  
                   u3145 01E3                     u2601 0F87                     u2513 0E82  
                   u2505 0E4D                     u2433 0D88                     u2361 0CBF  
                   u2602 0F8C                     u2450 0DC9                     u2362 0CC4  
                   u2603 0F8D                     u2523 0E93                     u2451 0DCA  
                   u2363 0CC5                     u2275 0B6A                     u2540 0ED4  
                   u2452 0DCF                     u3405 0383                     u2613 0F9E  
                   u2541 0ED5                     u2453 0DD0                     u2445 0D9B  
                   u2373 0CD6                     u2542 0EDA                     u2390 0D17  
                   u4055 0791                     u2543 0EDB                     u2535 0EA6  
                   u2463 0DE1                     u2391 0D18                     u2295 0B7D  
                   u2480 0E22                     u2392 0D1D                     u2625 0FB1  
                   u2553 0EEC                     u2481 0E23                     u2393 0D1E  
                   u2385 0CE9                     u2570 0F2D                     u2482 0E28  
                   u3275 02B3                     u2571 0F2E                     u2483 0E29  
                   u2475 0DF4                     u2572 0F33                     u2573 0F34  
                   u2565 0EFF                     u2493 0E3A                     u4165 0AE9  
                   u3535 0453                     u2583 0F45                     u4185 0ABE  
                   u2595 0F58                     u4197 0B08                     u3665 0523  
                   u3925 06C1                     u2885 0C56                     u3795 05F3  
                   _fdef 0059                     _main 0AA5                     btemp 007E  
          __CFG_BOREN$ON 0000                     ltemp 007E                     start 0000  
                   ttemp 007E                     wtemp 007E                    ?_main 0070  
                  STR_10 080E                    STR_11 0806                    STR_12 0808  
                  STR_20 080E                    STR_21 0806                    STR_13 080A  
                  STR_22 0808                    STR_14 080C                    STR_30 080E  
                  STR_31 0808                    STR_23 080A                    STR_15 080E  
                  STR_16 0806                    STR_32 080A                    STR_24 080C  
                  STR_17 0808                    STR_33 080C                    STR_25 080E  
          __CFG_WDTE$OFF 0000                    STR_26 0806                    STR_18 080A  
                  STR_27 0808                    STR_19 080C                    STR_28 080A  
                  STR_29 080C                    _PORTA 0005                    _PORTB 0006  
                  _PORTC 0007                    _PORTD 0008                    _PORTE 0009  
                  _TRISA 0085                    _TRISB 0086                    _TRISC 0087  
                  _TRISD 0088            __CFG_WRT$HALF 0000            __CFG_PWRTE$ON 0000  
                  main@c 0053                    main@i 0055                    pclath 000A  
                  ltemp0 007E                    ltemp1 0082                    ltemp2 0086  
                  ltemp3 0080                    ttemp0 007E                    ttemp1 0081  
                  ttemp2 0084                    ttemp3 0087                    ttemp4 007F  
                  status 0003                    wtemp0 007E                    wtemp1 0080  
                  wtemp2 0082                    wtemp3 0084                    wtemp4 0086  
                  wtemp5 0088                    wtemp6 007F          __initialization 07DF  
           __end_of_main 0B16                   ??_main 007C   print_sevenseg@compnumb 0046  
                 ___ftge 000B                   _numlib 00A0  __end_of__initialization 07FC  
             ___ftge@ff1 0070               ___ftge@ff2 0073         ??_print_sevenseg 004B  
         __pcstackCOMMON 0070             __pidataBANK0 0A31             __pidataBANK1 0A55  
             __pbssBANK0 0057               __pmaintext 0AA5                  ?___ftge 0070  
                _SETport 0057               __stringtab 0800          __size_of___ftge 005D  
                __ptext1 0B16                  __ptext2 000B     end_of_initialization 07FC  
                psplit$0 D000F                  psplit$1 F0010                  psplit$2 100011  
         __end_of___ftge 0068        pnum$text1_split_1 000F        pnum$text1_split_2 0010  
      pnum$text1_split_3 0011      start_initialization 07DF                 ??___ftge 0076  
             init_fetch0 0A20              __pdataBANK0 0020              __pdataBANK1 00A0  
              ___latbits 0002            __pcstackBANK0 0044                __pstrings 0800  
__size_of_print_sevenseg FCC9                 _SETscale 0020              __stringbase 0805  
   print_sevenseg@number 0044       __end_of__stringtab 0806            __size_of_main 0071  
              pnum$text1 000D           _print_sevenseg 0B16      print_sevenseg@port1 0049  
    print_sevenseg@port2 004A                 init_ram0 0A24                stringcode 0800  
 __end_of_print_sevenseg 07DF                 stringdir 0800                 stringtab 0800  
